	.text
	.abicalls
	.option	pic0
	.section	.mdebug.abi32,"",@progbits
	.nan	legacy
	.text
	.file	"main"
	.globl	main                            # -- Begin function main
	.p2align	2
	.type	main,@function
	.set	nomicromips
	.set	nomips16
	.ent	main
main:                                   # @main
	.cfi_startproc
	.frame	$sp,8088,$ra
	.mask 	0xc0ff0000,-4
	.fmask	0x00000000,0
	.set	noreorder
	.set	nomacro
	.set	noat
# %bb.0:                                # %main_entry
	addiu	$sp, $sp, -8088
	.cfi_def_cfa_offset 8088
	sw	$ra, 8084($sp)                  # 4-byte Folded Spill
	sw	$fp, 8080($sp)                  # 4-byte Folded Spill
	sw	$23, 8076($sp)                  # 4-byte Folded Spill
	sw	$22, 8072($sp)                  # 4-byte Folded Spill
	sw	$21, 8068($sp)                  # 4-byte Folded Spill
	sw	$20, 8064($sp)                  # 4-byte Folded Spill
	sw	$19, 8060($sp)                  # 4-byte Folded Spill
	sw	$18, 8056($sp)                  # 4-byte Folded Spill
	sw	$17, 8052($sp)                  # 4-byte Folded Spill
	sw	$16, 8048($sp)                  # 4-byte Folded Spill
	.cfi_offset 31, -4
	.cfi_offset 30, -8
	.cfi_offset 23, -12
	.cfi_offset 22, -16
	.cfi_offset 21, -20
	.cfi_offset 20, -24
	.cfi_offset 19, -28
	.cfi_offset 18, -32
	.cfi_offset 17, -36
	.cfi_offset 16, -40
	lui	$1, %hi($format)
	addiu	$4, $1, %lo($format)
	lui	$1, %hi($string_tmp_)
	addiu	$5, $1, %lo($string_tmp_)
	jal	printf
	sw	$zero, 24($sp)
	lui	$1, %hi($format.2)
	addiu	$16, $1, %lo($format.2)
	lui	$1, %hi($string_tmp_.1)
	addiu	$17, $1, %lo($string_tmp_.1)
	lui	$1, %hi($format.3)
	addiu	$18, $1, %lo($format.3)
	addiu	$19, $sp, 8036
	addiu	$20, $sp, 24
	lui	$1, %hi($format.4)
	addiu	$21, $1, %lo($format.4)
	addiu	$23, $zero, 2
	lui	$1, %hi($format.6)
	addiu	$1, $1, %lo($format.6)
	sw	$1, 20($sp)                     # 4-byte Folded Spill
	lui	$1, %hi($string_tmp_.5)
	addiu	$1, $1, %lo($string_tmp_.5)
	sw	$1, 16($sp)                     # 4-byte Folded Spill
	lui	$1, %hi($format.7)
	addiu	$fp, $1, %lo($format.7)
	j	$BB0_3
	addiu	$22, $sp, 8040
$BB0_1:                                 # %if
                                        #   in Loop: Header=BB0_3 Depth=1
	jal	pop
	move	$4, $20
	mfc1	$6, $f1
	mfc1	$7, $f0
	jal	printf
	move	$4, $21
$BB0_2:                                 # %after2
                                        #   in Loop: Header=BB0_3 Depth=1
	lw	$1, 8036($sp)
	beq	$1, $23, $BB0_7
	nop
$BB0_3:                                 # %loop
                                        # =>This Inner Loop Header: Depth=1
	move	$4, $16
	jal	printf
	move	$5, $17
	move	$4, $18
	jal	scanf
	move	$5, $19
	lw	$1, 8036($sp)
	beqz	$1, $BB0_1
	nop
# %bb.4:                                # %else
                                        #   in Loop: Header=BB0_3 Depth=1
	lw	$1, 8036($sp)
	addiu	$2, $zero, 1
	bne	$1, $2, $BB0_6
	nop
# %bb.5:                                # %if5
                                        #   in Loop: Header=BB0_3 Depth=1
	lw	$4, 20($sp)                     # 4-byte Folded Reload
	lw	$5, 16($sp)                     # 4-byte Folded Reload
	jal	printf
	nop
	move	$4, $fp
	jal	scanf
	move	$5, $22
	ldc1	$f0, 8040($sp)
	mfc1	$4, $f1
	mfc1	$5, $f0
	jal	push
	move	$6, $20
	j	$BB0_2
	nop
$BB0_6:                                 # %else6
                                        #   in Loop: Header=BB0_3 Depth=1
	j	$BB0_2
	sw	$23, 8036($sp)
$BB0_7:                                 # %after
	lw	$16, 8048($sp)                  # 4-byte Folded Reload
	lw	$17, 8052($sp)                  # 4-byte Folded Reload
	lw	$18, 8056($sp)                  # 4-byte Folded Reload
	lw	$19, 8060($sp)                  # 4-byte Folded Reload
	lw	$20, 8064($sp)                  # 4-byte Folded Reload
	lw	$21, 8068($sp)                  # 4-byte Folded Reload
	lw	$22, 8072($sp)                  # 4-byte Folded Reload
	lw	$23, 8076($sp)                  # 4-byte Folded Reload
	lw	$fp, 8080($sp)                  # 4-byte Folded Reload
	lw	$ra, 8084($sp)                  # 4-byte Folded Reload
	jr	$ra
	addiu	$sp, $sp, 8088
	.set	at
	.set	macro
	.set	reorder
	.end	main
$func_end0:
	.size	main, ($func_end0)-main
	.cfi_endproc
                                        # -- End function
	.p2align	2                               # -- Begin function set
	.type	set,@function
	.set	nomicromips
	.set	nomips16
	.ent	set
set:                                    # @set
	.cfi_startproc
	.frame	$sp,16,$ra
	.mask 	0x00000000,0
	.fmask	0x00000000,0
	.set	noreorder
	.set	nomacro
	.set	noat
# %bb.0:                                # %set
	addiu	$sp, $sp, -16
	.cfi_def_cfa_offset 16
	sw	$7, 4($sp)
	mtc1	$5, $f0
	mtc1	$4, $f1
	sdc1	$f0, 8($sp)
	sll	$1, $7, 3
	addu	$1, $6, $1
	sdc1	$f0, 0($1)
	jr	$ra
	addiu	$sp, $sp, 16
	.set	at
	.set	macro
	.set	reorder
	.end	set
$func_end1:
	.size	set, ($func_end1)-set
	.cfi_endproc
                                        # -- End function
	.p2align	2                               # -- Begin function pop
	.type	pop,@function
	.set	nomicromips
	.set	nomips16
	.ent	pop
pop:                                    # @pop
	.cfi_startproc
	.frame	$sp,15928,$ra
	.mask 	0x80010000,-52
	.fmask	0xfff00000,-8
	.set	noreorder
	.set	nomacro
	.set	noat
# %bb.0:                                # %pop
	addiu	$sp, $sp, -15928
	.cfi_def_cfa_offset 15928
	sdc1	$f30, 15920($sp)                # 8-byte Folded Spill
	sdc1	$f28, 15912($sp)                # 8-byte Folded Spill
	sdc1	$f26, 15904($sp)                # 8-byte Folded Spill
	sdc1	$f24, 15896($sp)                # 8-byte Folded Spill
	sdc1	$f22, 15888($sp)                # 8-byte Folded Spill
	sdc1	$f20, 15880($sp)                # 8-byte Folded Spill
	sw	$ra, 15876($sp)                 # 4-byte Folded Spill
	sw	$16, 15872($sp)                 # 4-byte Folded Spill
	.cfi_offset 63, -8
	.cfi_offset 62, -4
	.cfi_offset 61, -16
	.cfi_offset 60, -12
	.cfi_offset 59, -24
	.cfi_offset 58, -20
	.cfi_offset 57, -32
	.cfi_offset 56, -28
	.cfi_offset 55, -40
	.cfi_offset 54, -36
	.cfi_offset 53, -48
	.cfi_offset 52, -44
	.cfi_offset 31, -52
	.cfi_offset 16, -56
	sw	$7, 15940($sp)
	sw	$6, 15936($sp)
	sw	$5, 15932($sp)
	lw	$1, 0($4)
	blez	$1, $BB2_2
	nop
# %bb.1:                                # %if
	move	$16, $4
	ldc1	$f0, 16($4)
	ldc1	$f2, 8($4)
	ldc1	$f4, 24($4)
	sdc1	$f4, 15856($sp)                 # 8-byte Folded Spill
	ldc1	$f4, 32($4)
	sdc1	$f4, 15848($sp)                 # 8-byte Folded Spill
	ldc1	$f4, 40($4)
	sdc1	$f4, 15840($sp)                 # 8-byte Folded Spill
	ldc1	$f4, 48($4)
	sdc1	$f4, 15832($sp)                 # 8-byte Folded Spill
	ldc1	$f4, 56($4)
	sdc1	$f4, 15824($sp)                 # 8-byte Folded Spill
	ldc1	$f4, 64($4)
	sdc1	$f4, 15816($sp)                 # 8-byte Folded Spill
	ldc1	$f4, 72($4)
	sdc1	$f4, 15808($sp)                 # 8-byte Folded Spill
	ldc1	$f4, 80($4)
	sdc1	$f4, 15800($sp)                 # 8-byte Folded Spill
	ldc1	$f4, 88($4)
	sdc1	$f4, 15792($sp)                 # 8-byte Folded Spill
	ldc1	$f4, 96($4)
	sdc1	$f4, 15784($sp)                 # 8-byte Folded Spill
	ldc1	$f4, 104($4)
	sdc1	$f4, 15776($sp)                 # 8-byte Folded Spill
	ldc1	$f4, 112($4)
	sdc1	$f4, 15768($sp)                 # 8-byte Folded Spill
	ldc1	$f4, 120($4)
	sdc1	$f4, 15760($sp)                 # 8-byte Folded Spill
	lw	$1, 0($4)
	mfc1	$4, $f3
	ldc1	$f4, 128($16)
	sdc1	$f4, 15752($sp)                 # 8-byte Folded Spill
	mfc1	$5, $f2
	mfc1	$6, $f1
	ldc1	$f2, 136($16)
	sdc1	$f2, 15744($sp)                 # 8-byte Folded Spill
	mfc1	$7, $f0
	ldc1	$f0, 144($16)
	sdc1	$f0, 15736($sp)                 # 8-byte Folded Spill
	ldc1	$f0, 152($16)
	sdc1	$f0, 15728($sp)                 # 8-byte Folded Spill
	ldc1	$f0, 160($16)
	sdc1	$f0, 15720($sp)                 # 8-byte Folded Spill
	ldc1	$f0, 168($16)
	sdc1	$f0, 15712($sp)                 # 8-byte Folded Spill
	ldc1	$f0, 176($16)
	sdc1	$f0, 15704($sp)                 # 8-byte Folded Spill
	ldc1	$f0, 184($16)
	sdc1	$f0, 15696($sp)                 # 8-byte Folded Spill
	ldc1	$f0, 192($16)
	sdc1	$f0, 15688($sp)                 # 8-byte Folded Spill
	ldc1	$f0, 200($16)
	sdc1	$f0, 15680($sp)                 # 8-byte Folded Spill
	ldc1	$f0, 208($16)
	sdc1	$f0, 15672($sp)                 # 8-byte Folded Spill
	ldc1	$f0, 216($16)
	sdc1	$f0, 15664($sp)                 # 8-byte Folded Spill
	ldc1	$f0, 224($16)
	sdc1	$f0, 15656($sp)                 # 8-byte Folded Spill
	ldc1	$f0, 232($16)
	sdc1	$f0, 15648($sp)                 # 8-byte Folded Spill
	ldc1	$f0, 240($16)
	sdc1	$f0, 15640($sp)                 # 8-byte Folded Spill
	ldc1	$f0, 248($16)
	sdc1	$f0, 15632($sp)                 # 8-byte Folded Spill
	ldc1	$f0, 256($16)
	sdc1	$f0, 15624($sp)                 # 8-byte Folded Spill
	ldc1	$f0, 264($16)
	sdc1	$f0, 15616($sp)                 # 8-byte Folded Spill
	ldc1	$f0, 272($16)
	sdc1	$f0, 15608($sp)                 # 8-byte Folded Spill
	ldc1	$f0, 280($16)
	sdc1	$f0, 15600($sp)                 # 8-byte Folded Spill
	ldc1	$f0, 288($16)
	sdc1	$f0, 15592($sp)                 # 8-byte Folded Spill
	ldc1	$f0, 296($16)
	sdc1	$f0, 15584($sp)                 # 8-byte Folded Spill
	ldc1	$f0, 304($16)
	sdc1	$f0, 15576($sp)                 # 8-byte Folded Spill
	ldc1	$f0, 312($16)
	sdc1	$f0, 15568($sp)                 # 8-byte Folded Spill
	ldc1	$f0, 320($16)
	sdc1	$f0, 15560($sp)                 # 8-byte Folded Spill
	ldc1	$f0, 328($16)
	sdc1	$f0, 15552($sp)                 # 8-byte Folded Spill
	ldc1	$f0, 336($16)
	sdc1	$f0, 15544($sp)                 # 8-byte Folded Spill
	ldc1	$f0, 344($16)
	sdc1	$f0, 15536($sp)                 # 8-byte Folded Spill
	ldc1	$f0, 352($16)
	sdc1	$f0, 15528($sp)                 # 8-byte Folded Spill
	ldc1	$f0, 360($16)
	sdc1	$f0, 15520($sp)                 # 8-byte Folded Spill
	ldc1	$f0, 368($16)
	sdc1	$f0, 15512($sp)                 # 8-byte Folded Spill
	ldc1	$f0, 376($16)
	sdc1	$f0, 15504($sp)                 # 8-byte Folded Spill
	ldc1	$f0, 384($16)
	sdc1	$f0, 15496($sp)                 # 8-byte Folded Spill
	ldc1	$f0, 392($16)
	sdc1	$f0, 15488($sp)                 # 8-byte Folded Spill
	ldc1	$f0, 400($16)
	sdc1	$f0, 15480($sp)                 # 8-byte Folded Spill
	ldc1	$f0, 408($16)
	sdc1	$f0, 15472($sp)                 # 8-byte Folded Spill
	ldc1	$f0, 416($16)
	sdc1	$f0, 15464($sp)                 # 8-byte Folded Spill
	ldc1	$f0, 424($16)
	sdc1	$f0, 15456($sp)                 # 8-byte Folded Spill
	ldc1	$f0, 432($16)
	sdc1	$f0, 15448($sp)                 # 8-byte Folded Spill
	ldc1	$f0, 440($16)
	sdc1	$f0, 15440($sp)                 # 8-byte Folded Spill
	ldc1	$f0, 448($16)
	sdc1	$f0, 15432($sp)                 # 8-byte Folded Spill
	ldc1	$f0, 456($16)
	sdc1	$f0, 15424($sp)                 # 8-byte Folded Spill
	ldc1	$f0, 464($16)
	sdc1	$f0, 15416($sp)                 # 8-byte Folded Spill
	ldc1	$f0, 472($16)
	sdc1	$f0, 15408($sp)                 # 8-byte Folded Spill
	ldc1	$f0, 480($16)
	sdc1	$f0, 15400($sp)                 # 8-byte Folded Spill
	ldc1	$f0, 488($16)
	sdc1	$f0, 15392($sp)                 # 8-byte Folded Spill
	ldc1	$f0, 496($16)
	sdc1	$f0, 15384($sp)                 # 8-byte Folded Spill
	ldc1	$f0, 504($16)
	sdc1	$f0, 15376($sp)                 # 8-byte Folded Spill
	ldc1	$f0, 512($16)
	sdc1	$f0, 15368($sp)                 # 8-byte Folded Spill
	ldc1	$f0, 520($16)
	sdc1	$f0, 15360($sp)                 # 8-byte Folded Spill
	ldc1	$f0, 528($16)
	sdc1	$f0, 15352($sp)                 # 8-byte Folded Spill
	ldc1	$f0, 536($16)
	sdc1	$f0, 15344($sp)                 # 8-byte Folded Spill
	ldc1	$f0, 544($16)
	sdc1	$f0, 15336($sp)                 # 8-byte Folded Spill
	ldc1	$f0, 552($16)
	sdc1	$f0, 15328($sp)                 # 8-byte Folded Spill
	ldc1	$f0, 560($16)
	sdc1	$f0, 15320($sp)                 # 8-byte Folded Spill
	ldc1	$f0, 568($16)
	sdc1	$f0, 15312($sp)                 # 8-byte Folded Spill
	ldc1	$f0, 576($16)
	sdc1	$f0, 15304($sp)                 # 8-byte Folded Spill
	ldc1	$f0, 584($16)
	sdc1	$f0, 15296($sp)                 # 8-byte Folded Spill
	ldc1	$f0, 592($16)
	sdc1	$f0, 15288($sp)                 # 8-byte Folded Spill
	ldc1	$f0, 600($16)
	sdc1	$f0, 15280($sp)                 # 8-byte Folded Spill
	ldc1	$f0, 608($16)
	sdc1	$f0, 15272($sp)                 # 8-byte Folded Spill
	ldc1	$f0, 616($16)
	sdc1	$f0, 15264($sp)                 # 8-byte Folded Spill
	ldc1	$f0, 624($16)
	sdc1	$f0, 15256($sp)                 # 8-byte Folded Spill
	ldc1	$f0, 632($16)
	sdc1	$f0, 15248($sp)                 # 8-byte Folded Spill
	ldc1	$f0, 640($16)
	sdc1	$f0, 15240($sp)                 # 8-byte Folded Spill
	ldc1	$f0, 648($16)
	sdc1	$f0, 15232($sp)                 # 8-byte Folded Spill
	ldc1	$f0, 656($16)
	sdc1	$f0, 15224($sp)                 # 8-byte Folded Spill
	ldc1	$f0, 664($16)
	sdc1	$f0, 15216($sp)                 # 8-byte Folded Spill
	ldc1	$f0, 672($16)
	sdc1	$f0, 15208($sp)                 # 8-byte Folded Spill
	ldc1	$f0, 680($16)
	sdc1	$f0, 15200($sp)                 # 8-byte Folded Spill
	ldc1	$f0, 688($16)
	sdc1	$f0, 15192($sp)                 # 8-byte Folded Spill
	ldc1	$f0, 696($16)
	sdc1	$f0, 15184($sp)                 # 8-byte Folded Spill
	ldc1	$f0, 704($16)
	sdc1	$f0, 15176($sp)                 # 8-byte Folded Spill
	ldc1	$f0, 712($16)
	sdc1	$f0, 15168($sp)                 # 8-byte Folded Spill
	ldc1	$f0, 720($16)
	sdc1	$f0, 15160($sp)                 # 8-byte Folded Spill
	ldc1	$f0, 728($16)
	sdc1	$f0, 15152($sp)                 # 8-byte Folded Spill
	ldc1	$f0, 736($16)
	sdc1	$f0, 15144($sp)                 # 8-byte Folded Spill
	ldc1	$f0, 744($16)
	sdc1	$f0, 15136($sp)                 # 8-byte Folded Spill
	ldc1	$f0, 752($16)
	sdc1	$f0, 15128($sp)                 # 8-byte Folded Spill
	ldc1	$f0, 760($16)
	sdc1	$f0, 15120($sp)                 # 8-byte Folded Spill
	ldc1	$f0, 768($16)
	sdc1	$f0, 15112($sp)                 # 8-byte Folded Spill
	ldc1	$f0, 776($16)
	sdc1	$f0, 15104($sp)                 # 8-byte Folded Spill
	ldc1	$f0, 784($16)
	sdc1	$f0, 15096($sp)                 # 8-byte Folded Spill
	ldc1	$f0, 792($16)
	sdc1	$f0, 15088($sp)                 # 8-byte Folded Spill
	ldc1	$f0, 800($16)
	sdc1	$f0, 15080($sp)                 # 8-byte Folded Spill
	ldc1	$f0, 808($16)
	sdc1	$f0, 15072($sp)                 # 8-byte Folded Spill
	ldc1	$f0, 816($16)
	sdc1	$f0, 15064($sp)                 # 8-byte Folded Spill
	ldc1	$f0, 824($16)
	sdc1	$f0, 15056($sp)                 # 8-byte Folded Spill
	ldc1	$f0, 832($16)
	sdc1	$f0, 15048($sp)                 # 8-byte Folded Spill
	ldc1	$f0, 840($16)
	sdc1	$f0, 15040($sp)                 # 8-byte Folded Spill
	ldc1	$f0, 848($16)
	sdc1	$f0, 15032($sp)                 # 8-byte Folded Spill
	ldc1	$f0, 856($16)
	sdc1	$f0, 15024($sp)                 # 8-byte Folded Spill
	ldc1	$f0, 864($16)
	sdc1	$f0, 15016($sp)                 # 8-byte Folded Spill
	ldc1	$f0, 872($16)
	sdc1	$f0, 15008($sp)                 # 8-byte Folded Spill
	ldc1	$f0, 880($16)
	sdc1	$f0, 15000($sp)                 # 8-byte Folded Spill
	ldc1	$f0, 888($16)
	sdc1	$f0, 14992($sp)                 # 8-byte Folded Spill
	ldc1	$f0, 896($16)
	sdc1	$f0, 14984($sp)                 # 8-byte Folded Spill
	ldc1	$f0, 904($16)
	sdc1	$f0, 14976($sp)                 # 8-byte Folded Spill
	ldc1	$f0, 912($16)
	sdc1	$f0, 14968($sp)                 # 8-byte Folded Spill
	ldc1	$f0, 920($16)
	sdc1	$f0, 14960($sp)                 # 8-byte Folded Spill
	ldc1	$f0, 928($16)
	sdc1	$f0, 14952($sp)                 # 8-byte Folded Spill
	ldc1	$f0, 936($16)
	sdc1	$f0, 14944($sp)                 # 8-byte Folded Spill
	ldc1	$f0, 944($16)
	sdc1	$f0, 14936($sp)                 # 8-byte Folded Spill
	ldc1	$f0, 952($16)
	sdc1	$f0, 14928($sp)                 # 8-byte Folded Spill
	ldc1	$f0, 960($16)
	sdc1	$f0, 14920($sp)                 # 8-byte Folded Spill
	ldc1	$f0, 968($16)
	sdc1	$f0, 14912($sp)                 # 8-byte Folded Spill
	ldc1	$f0, 976($16)
	sdc1	$f0, 14904($sp)                 # 8-byte Folded Spill
	ldc1	$f0, 984($16)
	sdc1	$f0, 14896($sp)                 # 8-byte Folded Spill
	ldc1	$f0, 992($16)
	sdc1	$f0, 14888($sp)                 # 8-byte Folded Spill
	ldc1	$f0, 1000($16)
	sdc1	$f0, 14880($sp)                 # 8-byte Folded Spill
	ldc1	$f0, 1008($16)
	sdc1	$f0, 14872($sp)                 # 8-byte Folded Spill
	ldc1	$f0, 1016($16)
	sdc1	$f0, 14864($sp)                 # 8-byte Folded Spill
	ldc1	$f0, 1024($16)
	sdc1	$f0, 14856($sp)                 # 8-byte Folded Spill
	ldc1	$f0, 1032($16)
	sdc1	$f0, 14848($sp)                 # 8-byte Folded Spill
	ldc1	$f0, 1040($16)
	sdc1	$f0, 14840($sp)                 # 8-byte Folded Spill
	ldc1	$f0, 1048($16)
	sdc1	$f0, 14832($sp)                 # 8-byte Folded Spill
	ldc1	$f0, 1056($16)
	sdc1	$f0, 14824($sp)                 # 8-byte Folded Spill
	ldc1	$f0, 1064($16)
	sdc1	$f0, 14816($sp)                 # 8-byte Folded Spill
	ldc1	$f0, 1072($16)
	sdc1	$f0, 14808($sp)                 # 8-byte Folded Spill
	ldc1	$f0, 1080($16)
	sdc1	$f0, 14800($sp)                 # 8-byte Folded Spill
	ldc1	$f0, 1088($16)
	sdc1	$f0, 14792($sp)                 # 8-byte Folded Spill
	ldc1	$f0, 1096($16)
	sdc1	$f0, 14784($sp)                 # 8-byte Folded Spill
	ldc1	$f0, 1104($16)
	sdc1	$f0, 14776($sp)                 # 8-byte Folded Spill
	ldc1	$f0, 1112($16)
	sdc1	$f0, 14768($sp)                 # 8-byte Folded Spill
	ldc1	$f0, 1120($16)
	sdc1	$f0, 14760($sp)                 # 8-byte Folded Spill
	ldc1	$f0, 1128($16)
	sdc1	$f0, 14752($sp)                 # 8-byte Folded Spill
	ldc1	$f0, 1136($16)
	sdc1	$f0, 14744($sp)                 # 8-byte Folded Spill
	ldc1	$f0, 1144($16)
	sdc1	$f0, 14736($sp)                 # 8-byte Folded Spill
	ldc1	$f0, 1152($16)
	sdc1	$f0, 14728($sp)                 # 8-byte Folded Spill
	ldc1	$f0, 1160($16)
	sdc1	$f0, 14720($sp)                 # 8-byte Folded Spill
	ldc1	$f0, 1168($16)
	sdc1	$f0, 14712($sp)                 # 8-byte Folded Spill
	ldc1	$f0, 1176($16)
	sdc1	$f0, 14704($sp)                 # 8-byte Folded Spill
	ldc1	$f0, 1184($16)
	sdc1	$f0, 14696($sp)                 # 8-byte Folded Spill
	ldc1	$f0, 1192($16)
	sdc1	$f0, 14688($sp)                 # 8-byte Folded Spill
	ldc1	$f0, 1200($16)
	sdc1	$f0, 14680($sp)                 # 8-byte Folded Spill
	ldc1	$f0, 1208($16)
	sdc1	$f0, 14672($sp)                 # 8-byte Folded Spill
	ldc1	$f0, 1216($16)
	sdc1	$f0, 14664($sp)                 # 8-byte Folded Spill
	ldc1	$f0, 1224($16)
	sdc1	$f0, 14656($sp)                 # 8-byte Folded Spill
	ldc1	$f0, 1232($16)
	sdc1	$f0, 14648($sp)                 # 8-byte Folded Spill
	ldc1	$f0, 1240($16)
	sdc1	$f0, 14640($sp)                 # 8-byte Folded Spill
	ldc1	$f0, 1248($16)
	sdc1	$f0, 14632($sp)                 # 8-byte Folded Spill
	ldc1	$f0, 1256($16)
	sdc1	$f0, 14624($sp)                 # 8-byte Folded Spill
	ldc1	$f0, 1264($16)
	sdc1	$f0, 14616($sp)                 # 8-byte Folded Spill
	ldc1	$f0, 1272($16)
	sdc1	$f0, 14608($sp)                 # 8-byte Folded Spill
	ldc1	$f0, 1280($16)
	sdc1	$f0, 14600($sp)                 # 8-byte Folded Spill
	ldc1	$f0, 1288($16)
	sdc1	$f0, 14592($sp)                 # 8-byte Folded Spill
	ldc1	$f0, 1296($16)
	sdc1	$f0, 14584($sp)                 # 8-byte Folded Spill
	ldc1	$f0, 1304($16)
	sdc1	$f0, 14576($sp)                 # 8-byte Folded Spill
	ldc1	$f0, 1312($16)
	sdc1	$f0, 14568($sp)                 # 8-byte Folded Spill
	ldc1	$f0, 1320($16)
	sdc1	$f0, 14560($sp)                 # 8-byte Folded Spill
	ldc1	$f0, 1328($16)
	sdc1	$f0, 14552($sp)                 # 8-byte Folded Spill
	ldc1	$f0, 1336($16)
	sdc1	$f0, 14544($sp)                 # 8-byte Folded Spill
	ldc1	$f0, 1344($16)
	sdc1	$f0, 14536($sp)                 # 8-byte Folded Spill
	ldc1	$f0, 1352($16)
	sdc1	$f0, 14528($sp)                 # 8-byte Folded Spill
	ldc1	$f0, 1360($16)
	sdc1	$f0, 14520($sp)                 # 8-byte Folded Spill
	ldc1	$f0, 1368($16)
	sdc1	$f0, 14512($sp)                 # 8-byte Folded Spill
	ldc1	$f0, 1376($16)
	sdc1	$f0, 14504($sp)                 # 8-byte Folded Spill
	ldc1	$f0, 1384($16)
	sdc1	$f0, 14496($sp)                 # 8-byte Folded Spill
	ldc1	$f0, 1392($16)
	sdc1	$f0, 14488($sp)                 # 8-byte Folded Spill
	ldc1	$f0, 1400($16)
	sdc1	$f0, 14480($sp)                 # 8-byte Folded Spill
	ldc1	$f0, 1408($16)
	sdc1	$f0, 14472($sp)                 # 8-byte Folded Spill
	ldc1	$f0, 1416($16)
	sdc1	$f0, 14464($sp)                 # 8-byte Folded Spill
	ldc1	$f0, 1424($16)
	sdc1	$f0, 14456($sp)                 # 8-byte Folded Spill
	ldc1	$f0, 1432($16)
	sdc1	$f0, 14448($sp)                 # 8-byte Folded Spill
	ldc1	$f0, 1440($16)
	sdc1	$f0, 14440($sp)                 # 8-byte Folded Spill
	ldc1	$f0, 1448($16)
	sdc1	$f0, 14432($sp)                 # 8-byte Folded Spill
	ldc1	$f0, 1456($16)
	sdc1	$f0, 14424($sp)                 # 8-byte Folded Spill
	ldc1	$f0, 1464($16)
	sdc1	$f0, 14416($sp)                 # 8-byte Folded Spill
	ldc1	$f0, 1472($16)
	sdc1	$f0, 14408($sp)                 # 8-byte Folded Spill
	ldc1	$f0, 1480($16)
	sdc1	$f0, 14400($sp)                 # 8-byte Folded Spill
	ldc1	$f0, 1488($16)
	sdc1	$f0, 14392($sp)                 # 8-byte Folded Spill
	ldc1	$f0, 1496($16)
	sdc1	$f0, 14384($sp)                 # 8-byte Folded Spill
	ldc1	$f0, 1504($16)
	sdc1	$f0, 14376($sp)                 # 8-byte Folded Spill
	ldc1	$f0, 1512($16)
	sdc1	$f0, 14368($sp)                 # 8-byte Folded Spill
	ldc1	$f0, 1520($16)
	sdc1	$f0, 14360($sp)                 # 8-byte Folded Spill
	ldc1	$f0, 1528($16)
	sdc1	$f0, 14352($sp)                 # 8-byte Folded Spill
	ldc1	$f0, 1536($16)
	sdc1	$f0, 14344($sp)                 # 8-byte Folded Spill
	ldc1	$f0, 1544($16)
	sdc1	$f0, 14336($sp)                 # 8-byte Folded Spill
	ldc1	$f0, 1552($16)
	sdc1	$f0, 14328($sp)                 # 8-byte Folded Spill
	ldc1	$f0, 1560($16)
	sdc1	$f0, 14320($sp)                 # 8-byte Folded Spill
	ldc1	$f0, 1568($16)
	sdc1	$f0, 14312($sp)                 # 8-byte Folded Spill
	ldc1	$f0, 1576($16)
	sdc1	$f0, 14304($sp)                 # 8-byte Folded Spill
	ldc1	$f0, 1584($16)
	sdc1	$f0, 14296($sp)                 # 8-byte Folded Spill
	ldc1	$f0, 1592($16)
	sdc1	$f0, 14288($sp)                 # 8-byte Folded Spill
	ldc1	$f0, 1600($16)
	sdc1	$f0, 14280($sp)                 # 8-byte Folded Spill
	ldc1	$f0, 1608($16)
	sdc1	$f0, 14272($sp)                 # 8-byte Folded Spill
	ldc1	$f0, 1616($16)
	sdc1	$f0, 14264($sp)                 # 8-byte Folded Spill
	ldc1	$f0, 1624($16)
	sdc1	$f0, 14256($sp)                 # 8-byte Folded Spill
	ldc1	$f0, 1632($16)
	sdc1	$f0, 14248($sp)                 # 8-byte Folded Spill
	ldc1	$f0, 1640($16)
	sdc1	$f0, 14240($sp)                 # 8-byte Folded Spill
	ldc1	$f0, 1648($16)
	sdc1	$f0, 14232($sp)                 # 8-byte Folded Spill
	ldc1	$f0, 1656($16)
	sdc1	$f0, 14224($sp)                 # 8-byte Folded Spill
	ldc1	$f0, 1664($16)
	sdc1	$f0, 14216($sp)                 # 8-byte Folded Spill
	ldc1	$f0, 1672($16)
	sdc1	$f0, 14208($sp)                 # 8-byte Folded Spill
	ldc1	$f0, 1680($16)
	sdc1	$f0, 14200($sp)                 # 8-byte Folded Spill
	ldc1	$f0, 1688($16)
	sdc1	$f0, 14192($sp)                 # 8-byte Folded Spill
	ldc1	$f0, 1696($16)
	sdc1	$f0, 14184($sp)                 # 8-byte Folded Spill
	ldc1	$f0, 1704($16)
	sdc1	$f0, 14176($sp)                 # 8-byte Folded Spill
	ldc1	$f0, 1712($16)
	sdc1	$f0, 14168($sp)                 # 8-byte Folded Spill
	ldc1	$f0, 1720($16)
	sdc1	$f0, 14160($sp)                 # 8-byte Folded Spill
	ldc1	$f0, 1728($16)
	sdc1	$f0, 14152($sp)                 # 8-byte Folded Spill
	ldc1	$f0, 1736($16)
	sdc1	$f0, 14144($sp)                 # 8-byte Folded Spill
	ldc1	$f0, 1744($16)
	sdc1	$f0, 14136($sp)                 # 8-byte Folded Spill
	ldc1	$f0, 1752($16)
	sdc1	$f0, 14128($sp)                 # 8-byte Folded Spill
	ldc1	$f0, 1760($16)
	sdc1	$f0, 14120($sp)                 # 8-byte Folded Spill
	ldc1	$f0, 1768($16)
	sdc1	$f0, 14112($sp)                 # 8-byte Folded Spill
	ldc1	$f0, 1776($16)
	sdc1	$f0, 14104($sp)                 # 8-byte Folded Spill
	ldc1	$f0, 1784($16)
	sdc1	$f0, 14096($sp)                 # 8-byte Folded Spill
	ldc1	$f0, 1792($16)
	sdc1	$f0, 14088($sp)                 # 8-byte Folded Spill
	ldc1	$f0, 1800($16)
	sdc1	$f0, 14080($sp)                 # 8-byte Folded Spill
	ldc1	$f0, 1808($16)
	sdc1	$f0, 14072($sp)                 # 8-byte Folded Spill
	ldc1	$f0, 1816($16)
	sdc1	$f0, 14064($sp)                 # 8-byte Folded Spill
	ldc1	$f0, 1824($16)
	sdc1	$f0, 14056($sp)                 # 8-byte Folded Spill
	ldc1	$f0, 1832($16)
	sdc1	$f0, 14048($sp)                 # 8-byte Folded Spill
	ldc1	$f0, 1840($16)
	sdc1	$f0, 14040($sp)                 # 8-byte Folded Spill
	ldc1	$f0, 1848($16)
	sdc1	$f0, 14032($sp)                 # 8-byte Folded Spill
	ldc1	$f0, 1856($16)
	sdc1	$f0, 14024($sp)                 # 8-byte Folded Spill
	ldc1	$f0, 1864($16)
	sdc1	$f0, 14016($sp)                 # 8-byte Folded Spill
	ldc1	$f0, 1872($16)
	sdc1	$f0, 14008($sp)                 # 8-byte Folded Spill
	ldc1	$f0, 1880($16)
	sdc1	$f0, 14000($sp)                 # 8-byte Folded Spill
	ldc1	$f0, 1888($16)
	sdc1	$f0, 13992($sp)                 # 8-byte Folded Spill
	ldc1	$f0, 1896($16)
	sdc1	$f0, 13984($sp)                 # 8-byte Folded Spill
	ldc1	$f0, 1904($16)
	sdc1	$f0, 13976($sp)                 # 8-byte Folded Spill
	ldc1	$f0, 1912($16)
	sdc1	$f0, 13968($sp)                 # 8-byte Folded Spill
	ldc1	$f0, 1920($16)
	sdc1	$f0, 13960($sp)                 # 8-byte Folded Spill
	ldc1	$f0, 1928($16)
	sdc1	$f0, 13952($sp)                 # 8-byte Folded Spill
	ldc1	$f0, 1936($16)
	sdc1	$f0, 13944($sp)                 # 8-byte Folded Spill
	ldc1	$f0, 1944($16)
	sdc1	$f0, 13936($sp)                 # 8-byte Folded Spill
	ldc1	$f0, 1952($16)
	sdc1	$f0, 13928($sp)                 # 8-byte Folded Spill
	ldc1	$f0, 1960($16)
	sdc1	$f0, 13920($sp)                 # 8-byte Folded Spill
	ldc1	$f0, 1968($16)
	sdc1	$f0, 13912($sp)                 # 8-byte Folded Spill
	ldc1	$f0, 1976($16)
	sdc1	$f0, 13904($sp)                 # 8-byte Folded Spill
	ldc1	$f0, 1984($16)
	sdc1	$f0, 13896($sp)                 # 8-byte Folded Spill
	ldc1	$f0, 1992($16)
	sdc1	$f0, 13888($sp)                 # 8-byte Folded Spill
	ldc1	$f0, 2000($16)
	sdc1	$f0, 13880($sp)                 # 8-byte Folded Spill
	ldc1	$f0, 2008($16)
	sdc1	$f0, 13872($sp)                 # 8-byte Folded Spill
	ldc1	$f0, 2016($16)
	sdc1	$f0, 13864($sp)                 # 8-byte Folded Spill
	ldc1	$f0, 2024($16)
	sdc1	$f0, 13856($sp)                 # 8-byte Folded Spill
	ldc1	$f0, 2032($16)
	sdc1	$f0, 13848($sp)                 # 8-byte Folded Spill
	ldc1	$f0, 2040($16)
	sdc1	$f0, 13840($sp)                 # 8-byte Folded Spill
	ldc1	$f0, 2048($16)
	sdc1	$f0, 13832($sp)                 # 8-byte Folded Spill
	ldc1	$f0, 2056($16)
	sdc1	$f0, 13824($sp)                 # 8-byte Folded Spill
	ldc1	$f0, 2064($16)
	sdc1	$f0, 13816($sp)                 # 8-byte Folded Spill
	ldc1	$f0, 2072($16)
	sdc1	$f0, 13808($sp)                 # 8-byte Folded Spill
	ldc1	$f0, 2080($16)
	sdc1	$f0, 13800($sp)                 # 8-byte Folded Spill
	ldc1	$f0, 2088($16)
	sdc1	$f0, 13792($sp)                 # 8-byte Folded Spill
	ldc1	$f0, 2096($16)
	sdc1	$f0, 13784($sp)                 # 8-byte Folded Spill
	ldc1	$f0, 2104($16)
	sdc1	$f0, 13776($sp)                 # 8-byte Folded Spill
	ldc1	$f0, 2112($16)
	sdc1	$f0, 13768($sp)                 # 8-byte Folded Spill
	ldc1	$f0, 2120($16)
	sdc1	$f0, 13760($sp)                 # 8-byte Folded Spill
	ldc1	$f0, 2128($16)
	sdc1	$f0, 13752($sp)                 # 8-byte Folded Spill
	ldc1	$f0, 2136($16)
	sdc1	$f0, 13744($sp)                 # 8-byte Folded Spill
	ldc1	$f0, 2144($16)
	sdc1	$f0, 13736($sp)                 # 8-byte Folded Spill
	ldc1	$f0, 2152($16)
	sdc1	$f0, 13728($sp)                 # 8-byte Folded Spill
	ldc1	$f0, 2160($16)
	sdc1	$f0, 13720($sp)                 # 8-byte Folded Spill
	ldc1	$f0, 2168($16)
	sdc1	$f0, 13712($sp)                 # 8-byte Folded Spill
	ldc1	$f0, 2176($16)
	sdc1	$f0, 13704($sp)                 # 8-byte Folded Spill
	ldc1	$f0, 2184($16)
	sdc1	$f0, 13696($sp)                 # 8-byte Folded Spill
	ldc1	$f0, 2192($16)
	sdc1	$f0, 13688($sp)                 # 8-byte Folded Spill
	ldc1	$f0, 2200($16)
	sdc1	$f0, 13680($sp)                 # 8-byte Folded Spill
	ldc1	$f0, 2208($16)
	sdc1	$f0, 13672($sp)                 # 8-byte Folded Spill
	ldc1	$f0, 2216($16)
	sdc1	$f0, 13664($sp)                 # 8-byte Folded Spill
	ldc1	$f0, 2224($16)
	sdc1	$f0, 13656($sp)                 # 8-byte Folded Spill
	ldc1	$f0, 2232($16)
	sdc1	$f0, 13648($sp)                 # 8-byte Folded Spill
	ldc1	$f0, 2240($16)
	sdc1	$f0, 13640($sp)                 # 8-byte Folded Spill
	ldc1	$f0, 2248($16)
	sdc1	$f0, 13632($sp)                 # 8-byte Folded Spill
	ldc1	$f0, 2256($16)
	sdc1	$f0, 13624($sp)                 # 8-byte Folded Spill
	ldc1	$f0, 2264($16)
	sdc1	$f0, 13616($sp)                 # 8-byte Folded Spill
	ldc1	$f0, 2272($16)
	sdc1	$f0, 13608($sp)                 # 8-byte Folded Spill
	ldc1	$f0, 2280($16)
	sdc1	$f0, 13600($sp)                 # 8-byte Folded Spill
	ldc1	$f0, 2288($16)
	sdc1	$f0, 13592($sp)                 # 8-byte Folded Spill
	ldc1	$f0, 2296($16)
	sdc1	$f0, 13584($sp)                 # 8-byte Folded Spill
	ldc1	$f0, 2304($16)
	sdc1	$f0, 13576($sp)                 # 8-byte Folded Spill
	ldc1	$f0, 2312($16)
	sdc1	$f0, 13568($sp)                 # 8-byte Folded Spill
	ldc1	$f0, 2320($16)
	sdc1	$f0, 13560($sp)                 # 8-byte Folded Spill
	ldc1	$f0, 2328($16)
	sdc1	$f0, 13552($sp)                 # 8-byte Folded Spill
	ldc1	$f0, 2336($16)
	sdc1	$f0, 13544($sp)                 # 8-byte Folded Spill
	ldc1	$f0, 2344($16)
	sdc1	$f0, 13536($sp)                 # 8-byte Folded Spill
	ldc1	$f0, 2352($16)
	sdc1	$f0, 13528($sp)                 # 8-byte Folded Spill
	ldc1	$f0, 2360($16)
	sdc1	$f0, 13520($sp)                 # 8-byte Folded Spill
	ldc1	$f0, 2368($16)
	sdc1	$f0, 13512($sp)                 # 8-byte Folded Spill
	ldc1	$f0, 2376($16)
	sdc1	$f0, 13504($sp)                 # 8-byte Folded Spill
	ldc1	$f0, 2384($16)
	sdc1	$f0, 13496($sp)                 # 8-byte Folded Spill
	ldc1	$f0, 2392($16)
	sdc1	$f0, 13488($sp)                 # 8-byte Folded Spill
	ldc1	$f0, 2400($16)
	sdc1	$f0, 13480($sp)                 # 8-byte Folded Spill
	ldc1	$f0, 2408($16)
	sdc1	$f0, 13472($sp)                 # 8-byte Folded Spill
	ldc1	$f0, 2416($16)
	sdc1	$f0, 13464($sp)                 # 8-byte Folded Spill
	ldc1	$f0, 2424($16)
	sdc1	$f0, 13456($sp)                 # 8-byte Folded Spill
	ldc1	$f0, 2432($16)
	sdc1	$f0, 13448($sp)                 # 8-byte Folded Spill
	ldc1	$f0, 2440($16)
	sdc1	$f0, 13440($sp)                 # 8-byte Folded Spill
	ldc1	$f0, 2448($16)
	sdc1	$f0, 13432($sp)                 # 8-byte Folded Spill
	ldc1	$f0, 2456($16)
	sdc1	$f0, 13424($sp)                 # 8-byte Folded Spill
	ldc1	$f0, 2464($16)
	sdc1	$f0, 13416($sp)                 # 8-byte Folded Spill
	ldc1	$f0, 2472($16)
	sdc1	$f0, 13408($sp)                 # 8-byte Folded Spill
	ldc1	$f0, 2480($16)
	sdc1	$f0, 13400($sp)                 # 8-byte Folded Spill
	ldc1	$f0, 2488($16)
	sdc1	$f0, 13392($sp)                 # 8-byte Folded Spill
	ldc1	$f0, 2496($16)
	sdc1	$f0, 13384($sp)                 # 8-byte Folded Spill
	ldc1	$f0, 2504($16)
	sdc1	$f0, 13376($sp)                 # 8-byte Folded Spill
	ldc1	$f0, 2512($16)
	sdc1	$f0, 13368($sp)                 # 8-byte Folded Spill
	ldc1	$f0, 2520($16)
	sdc1	$f0, 13360($sp)                 # 8-byte Folded Spill
	ldc1	$f0, 2528($16)
	sdc1	$f0, 13352($sp)                 # 8-byte Folded Spill
	ldc1	$f0, 2536($16)
	sdc1	$f0, 13344($sp)                 # 8-byte Folded Spill
	ldc1	$f0, 2544($16)
	sdc1	$f0, 13336($sp)                 # 8-byte Folded Spill
	ldc1	$f0, 2552($16)
	sdc1	$f0, 13328($sp)                 # 8-byte Folded Spill
	ldc1	$f0, 2560($16)
	sdc1	$f0, 13320($sp)                 # 8-byte Folded Spill
	ldc1	$f0, 2568($16)
	sdc1	$f0, 13312($sp)                 # 8-byte Folded Spill
	ldc1	$f0, 2576($16)
	sdc1	$f0, 13304($sp)                 # 8-byte Folded Spill
	ldc1	$f0, 2584($16)
	sdc1	$f0, 13296($sp)                 # 8-byte Folded Spill
	ldc1	$f0, 2592($16)
	sdc1	$f0, 13288($sp)                 # 8-byte Folded Spill
	ldc1	$f0, 2600($16)
	sdc1	$f0, 13280($sp)                 # 8-byte Folded Spill
	ldc1	$f0, 2608($16)
	sdc1	$f0, 13272($sp)                 # 8-byte Folded Spill
	ldc1	$f0, 2616($16)
	sdc1	$f0, 13264($sp)                 # 8-byte Folded Spill
	ldc1	$f0, 2624($16)
	sdc1	$f0, 13256($sp)                 # 8-byte Folded Spill
	ldc1	$f0, 2632($16)
	sdc1	$f0, 13248($sp)                 # 8-byte Folded Spill
	ldc1	$f0, 2640($16)
	sdc1	$f0, 13240($sp)                 # 8-byte Folded Spill
	ldc1	$f0, 2648($16)
	sdc1	$f0, 13232($sp)                 # 8-byte Folded Spill
	ldc1	$f0, 2656($16)
	sdc1	$f0, 13224($sp)                 # 8-byte Folded Spill
	ldc1	$f0, 2664($16)
	sdc1	$f0, 13216($sp)                 # 8-byte Folded Spill
	ldc1	$f0, 2672($16)
	sdc1	$f0, 13208($sp)                 # 8-byte Folded Spill
	ldc1	$f0, 2680($16)
	sdc1	$f0, 13200($sp)                 # 8-byte Folded Spill
	ldc1	$f0, 2688($16)
	sdc1	$f0, 13192($sp)                 # 8-byte Folded Spill
	ldc1	$f0, 2696($16)
	sdc1	$f0, 13184($sp)                 # 8-byte Folded Spill
	ldc1	$f0, 2704($16)
	sdc1	$f0, 13176($sp)                 # 8-byte Folded Spill
	ldc1	$f0, 2712($16)
	sdc1	$f0, 13168($sp)                 # 8-byte Folded Spill
	ldc1	$f0, 2720($16)
	sdc1	$f0, 13160($sp)                 # 8-byte Folded Spill
	ldc1	$f0, 2728($16)
	sdc1	$f0, 13152($sp)                 # 8-byte Folded Spill
	ldc1	$f0, 2736($16)
	sdc1	$f0, 13144($sp)                 # 8-byte Folded Spill
	ldc1	$f0, 2744($16)
	sdc1	$f0, 13136($sp)                 # 8-byte Folded Spill
	ldc1	$f0, 2752($16)
	sdc1	$f0, 13128($sp)                 # 8-byte Folded Spill
	ldc1	$f0, 2760($16)
	sdc1	$f0, 13120($sp)                 # 8-byte Folded Spill
	ldc1	$f0, 2768($16)
	sdc1	$f0, 13112($sp)                 # 8-byte Folded Spill
	ldc1	$f0, 2776($16)
	sdc1	$f0, 13104($sp)                 # 8-byte Folded Spill
	ldc1	$f0, 2784($16)
	sdc1	$f0, 13096($sp)                 # 8-byte Folded Spill
	ldc1	$f0, 2792($16)
	sdc1	$f0, 13088($sp)                 # 8-byte Folded Spill
	ldc1	$f0, 2800($16)
	sdc1	$f0, 13080($sp)                 # 8-byte Folded Spill
	ldc1	$f0, 2808($16)
	sdc1	$f0, 13072($sp)                 # 8-byte Folded Spill
	ldc1	$f0, 2816($16)
	sdc1	$f0, 13064($sp)                 # 8-byte Folded Spill
	ldc1	$f0, 2824($16)
	sdc1	$f0, 13056($sp)                 # 8-byte Folded Spill
	ldc1	$f0, 2832($16)
	sdc1	$f0, 13048($sp)                 # 8-byte Folded Spill
	ldc1	$f0, 2840($16)
	sdc1	$f0, 13040($sp)                 # 8-byte Folded Spill
	ldc1	$f0, 2848($16)
	sdc1	$f0, 13032($sp)                 # 8-byte Folded Spill
	ldc1	$f0, 2856($16)
	sdc1	$f0, 13024($sp)                 # 8-byte Folded Spill
	ldc1	$f0, 2864($16)
	sdc1	$f0, 13016($sp)                 # 8-byte Folded Spill
	ldc1	$f0, 2872($16)
	sdc1	$f0, 13008($sp)                 # 8-byte Folded Spill
	ldc1	$f0, 2880($16)
	sdc1	$f0, 13000($sp)                 # 8-byte Folded Spill
	ldc1	$f0, 2888($16)
	sdc1	$f0, 12992($sp)                 # 8-byte Folded Spill
	ldc1	$f0, 2896($16)
	sdc1	$f0, 12984($sp)                 # 8-byte Folded Spill
	ldc1	$f0, 2904($16)
	sdc1	$f0, 12976($sp)                 # 8-byte Folded Spill
	ldc1	$f0, 2912($16)
	sdc1	$f0, 12968($sp)                 # 8-byte Folded Spill
	ldc1	$f0, 2920($16)
	sdc1	$f0, 12960($sp)                 # 8-byte Folded Spill
	ldc1	$f0, 2928($16)
	sdc1	$f0, 12952($sp)                 # 8-byte Folded Spill
	ldc1	$f0, 2936($16)
	sdc1	$f0, 12944($sp)                 # 8-byte Folded Spill
	ldc1	$f0, 2944($16)
	sdc1	$f0, 12936($sp)                 # 8-byte Folded Spill
	ldc1	$f0, 2952($16)
	sdc1	$f0, 12928($sp)                 # 8-byte Folded Spill
	ldc1	$f0, 2960($16)
	sdc1	$f0, 12920($sp)                 # 8-byte Folded Spill
	ldc1	$f0, 2968($16)
	sdc1	$f0, 12912($sp)                 # 8-byte Folded Spill
	ldc1	$f0, 2976($16)
	sdc1	$f0, 12904($sp)                 # 8-byte Folded Spill
	ldc1	$f0, 2984($16)
	sdc1	$f0, 12896($sp)                 # 8-byte Folded Spill
	ldc1	$f0, 2992($16)
	sdc1	$f0, 12888($sp)                 # 8-byte Folded Spill
	ldc1	$f0, 3000($16)
	sdc1	$f0, 12880($sp)                 # 8-byte Folded Spill
	ldc1	$f0, 3008($16)
	sdc1	$f0, 12872($sp)                 # 8-byte Folded Spill
	ldc1	$f0, 3016($16)
	sdc1	$f0, 12864($sp)                 # 8-byte Folded Spill
	ldc1	$f0, 3024($16)
	sdc1	$f0, 12856($sp)                 # 8-byte Folded Spill
	ldc1	$f0, 3032($16)
	sdc1	$f0, 12848($sp)                 # 8-byte Folded Spill
	ldc1	$f0, 3040($16)
	sdc1	$f0, 12840($sp)                 # 8-byte Folded Spill
	ldc1	$f0, 3048($16)
	sdc1	$f0, 12832($sp)                 # 8-byte Folded Spill
	ldc1	$f0, 3056($16)
	sdc1	$f0, 12824($sp)                 # 8-byte Folded Spill
	ldc1	$f0, 3064($16)
	sdc1	$f0, 12816($sp)                 # 8-byte Folded Spill
	ldc1	$f0, 3072($16)
	sdc1	$f0, 12808($sp)                 # 8-byte Folded Spill
	ldc1	$f0, 3080($16)
	sdc1	$f0, 12800($sp)                 # 8-byte Folded Spill
	ldc1	$f0, 3088($16)
	sdc1	$f0, 12792($sp)                 # 8-byte Folded Spill
	ldc1	$f0, 3096($16)
	sdc1	$f0, 12784($sp)                 # 8-byte Folded Spill
	ldc1	$f0, 3104($16)
	sdc1	$f0, 12776($sp)                 # 8-byte Folded Spill
	ldc1	$f0, 3112($16)
	sdc1	$f0, 12768($sp)                 # 8-byte Folded Spill
	ldc1	$f0, 3120($16)
	sdc1	$f0, 12760($sp)                 # 8-byte Folded Spill
	ldc1	$f0, 3128($16)
	sdc1	$f0, 12752($sp)                 # 8-byte Folded Spill
	ldc1	$f0, 3136($16)
	sdc1	$f0, 12744($sp)                 # 8-byte Folded Spill
	ldc1	$f0, 3144($16)
	sdc1	$f0, 12736($sp)                 # 8-byte Folded Spill
	ldc1	$f0, 3152($16)
	sdc1	$f0, 12728($sp)                 # 8-byte Folded Spill
	ldc1	$f0, 3160($16)
	sdc1	$f0, 12720($sp)                 # 8-byte Folded Spill
	ldc1	$f0, 3168($16)
	sdc1	$f0, 12712($sp)                 # 8-byte Folded Spill
	ldc1	$f0, 3176($16)
	sdc1	$f0, 12704($sp)                 # 8-byte Folded Spill
	ldc1	$f0, 3184($16)
	sdc1	$f0, 12696($sp)                 # 8-byte Folded Spill
	ldc1	$f0, 3192($16)
	sdc1	$f0, 12688($sp)                 # 8-byte Folded Spill
	ldc1	$f0, 3200($16)
	sdc1	$f0, 12680($sp)                 # 8-byte Folded Spill
	ldc1	$f0, 3208($16)
	sdc1	$f0, 12672($sp)                 # 8-byte Folded Spill
	ldc1	$f0, 3216($16)
	sdc1	$f0, 12664($sp)                 # 8-byte Folded Spill
	ldc1	$f0, 3224($16)
	sdc1	$f0, 12656($sp)                 # 8-byte Folded Spill
	ldc1	$f0, 3232($16)
	sdc1	$f0, 12648($sp)                 # 8-byte Folded Spill
	ldc1	$f0, 3240($16)
	sdc1	$f0, 12640($sp)                 # 8-byte Folded Spill
	ldc1	$f0, 3248($16)
	sdc1	$f0, 12632($sp)                 # 8-byte Folded Spill
	ldc1	$f0, 3256($16)
	sdc1	$f0, 12624($sp)                 # 8-byte Folded Spill
	ldc1	$f0, 3264($16)
	sdc1	$f0, 12616($sp)                 # 8-byte Folded Spill
	ldc1	$f0, 3272($16)
	sdc1	$f0, 12608($sp)                 # 8-byte Folded Spill
	ldc1	$f0, 3280($16)
	sdc1	$f0, 12600($sp)                 # 8-byte Folded Spill
	ldc1	$f0, 3288($16)
	sdc1	$f0, 12592($sp)                 # 8-byte Folded Spill
	ldc1	$f0, 3296($16)
	sdc1	$f0, 12584($sp)                 # 8-byte Folded Spill
	ldc1	$f0, 3304($16)
	sdc1	$f0, 12576($sp)                 # 8-byte Folded Spill
	ldc1	$f0, 3312($16)
	sdc1	$f0, 12568($sp)                 # 8-byte Folded Spill
	ldc1	$f0, 3320($16)
	sdc1	$f0, 12560($sp)                 # 8-byte Folded Spill
	ldc1	$f0, 3328($16)
	sdc1	$f0, 12552($sp)                 # 8-byte Folded Spill
	ldc1	$f0, 3336($16)
	sdc1	$f0, 12544($sp)                 # 8-byte Folded Spill
	ldc1	$f0, 3344($16)
	sdc1	$f0, 12536($sp)                 # 8-byte Folded Spill
	ldc1	$f0, 3352($16)
	sdc1	$f0, 12528($sp)                 # 8-byte Folded Spill
	ldc1	$f0, 3360($16)
	sdc1	$f0, 12520($sp)                 # 8-byte Folded Spill
	ldc1	$f0, 3368($16)
	sdc1	$f0, 12512($sp)                 # 8-byte Folded Spill
	ldc1	$f0, 3376($16)
	sdc1	$f0, 12504($sp)                 # 8-byte Folded Spill
	ldc1	$f0, 3384($16)
	sdc1	$f0, 12496($sp)                 # 8-byte Folded Spill
	ldc1	$f0, 3392($16)
	sdc1	$f0, 12488($sp)                 # 8-byte Folded Spill
	ldc1	$f0, 3400($16)
	sdc1	$f0, 12480($sp)                 # 8-byte Folded Spill
	ldc1	$f0, 3408($16)
	sdc1	$f0, 12472($sp)                 # 8-byte Folded Spill
	ldc1	$f0, 3416($16)
	sdc1	$f0, 12464($sp)                 # 8-byte Folded Spill
	ldc1	$f0, 3424($16)
	sdc1	$f0, 12456($sp)                 # 8-byte Folded Spill
	ldc1	$f0, 3432($16)
	sdc1	$f0, 12448($sp)                 # 8-byte Folded Spill
	ldc1	$f0, 3440($16)
	sdc1	$f0, 12440($sp)                 # 8-byte Folded Spill
	ldc1	$f0, 3448($16)
	sdc1	$f0, 12432($sp)                 # 8-byte Folded Spill
	ldc1	$f0, 3456($16)
	sdc1	$f0, 12424($sp)                 # 8-byte Folded Spill
	ldc1	$f0, 3464($16)
	sdc1	$f0, 12416($sp)                 # 8-byte Folded Spill
	ldc1	$f0, 3472($16)
	sdc1	$f0, 12408($sp)                 # 8-byte Folded Spill
	ldc1	$f0, 3480($16)
	sdc1	$f0, 12400($sp)                 # 8-byte Folded Spill
	ldc1	$f0, 3488($16)
	sdc1	$f0, 12392($sp)                 # 8-byte Folded Spill
	ldc1	$f0, 3496($16)
	sdc1	$f0, 12384($sp)                 # 8-byte Folded Spill
	ldc1	$f0, 3504($16)
	sdc1	$f0, 12376($sp)                 # 8-byte Folded Spill
	ldc1	$f0, 3512($16)
	sdc1	$f0, 12368($sp)                 # 8-byte Folded Spill
	ldc1	$f0, 3520($16)
	sdc1	$f0, 12360($sp)                 # 8-byte Folded Spill
	ldc1	$f0, 3528($16)
	sdc1	$f0, 12352($sp)                 # 8-byte Folded Spill
	ldc1	$f0, 3536($16)
	sdc1	$f0, 12344($sp)                 # 8-byte Folded Spill
	ldc1	$f0, 3544($16)
	sdc1	$f0, 12336($sp)                 # 8-byte Folded Spill
	ldc1	$f0, 3552($16)
	sdc1	$f0, 12328($sp)                 # 8-byte Folded Spill
	ldc1	$f0, 3560($16)
	sdc1	$f0, 12320($sp)                 # 8-byte Folded Spill
	ldc1	$f0, 3568($16)
	sdc1	$f0, 12312($sp)                 # 8-byte Folded Spill
	ldc1	$f0, 3576($16)
	sdc1	$f0, 12304($sp)                 # 8-byte Folded Spill
	ldc1	$f0, 3584($16)
	sdc1	$f0, 12296($sp)                 # 8-byte Folded Spill
	ldc1	$f0, 3592($16)
	sdc1	$f0, 12288($sp)                 # 8-byte Folded Spill
	ldc1	$f0, 3600($16)
	sdc1	$f0, 12280($sp)                 # 8-byte Folded Spill
	ldc1	$f0, 3608($16)
	sdc1	$f0, 12272($sp)                 # 8-byte Folded Spill
	ldc1	$f0, 3616($16)
	sdc1	$f0, 12264($sp)                 # 8-byte Folded Spill
	ldc1	$f0, 3624($16)
	sdc1	$f0, 12256($sp)                 # 8-byte Folded Spill
	ldc1	$f0, 3632($16)
	sdc1	$f0, 12248($sp)                 # 8-byte Folded Spill
	ldc1	$f0, 3640($16)
	sdc1	$f0, 12240($sp)                 # 8-byte Folded Spill
	ldc1	$f0, 3648($16)
	sdc1	$f0, 12232($sp)                 # 8-byte Folded Spill
	ldc1	$f0, 3656($16)
	sdc1	$f0, 12224($sp)                 # 8-byte Folded Spill
	ldc1	$f0, 3664($16)
	sdc1	$f0, 12216($sp)                 # 8-byte Folded Spill
	ldc1	$f0, 3672($16)
	sdc1	$f0, 12208($sp)                 # 8-byte Folded Spill
	ldc1	$f0, 3680($16)
	sdc1	$f0, 12200($sp)                 # 8-byte Folded Spill
	ldc1	$f0, 3688($16)
	sdc1	$f0, 12192($sp)                 # 8-byte Folded Spill
	ldc1	$f0, 3696($16)
	sdc1	$f0, 12184($sp)                 # 8-byte Folded Spill
	ldc1	$f0, 3704($16)
	sdc1	$f0, 12176($sp)                 # 8-byte Folded Spill
	ldc1	$f0, 3712($16)
	sdc1	$f0, 12168($sp)                 # 8-byte Folded Spill
	ldc1	$f0, 3720($16)
	sdc1	$f0, 12160($sp)                 # 8-byte Folded Spill
	ldc1	$f0, 3728($16)
	sdc1	$f0, 12152($sp)                 # 8-byte Folded Spill
	ldc1	$f0, 3736($16)
	sdc1	$f0, 12144($sp)                 # 8-byte Folded Spill
	ldc1	$f0, 3744($16)
	sdc1	$f0, 12136($sp)                 # 8-byte Folded Spill
	ldc1	$f0, 3752($16)
	sdc1	$f0, 12128($sp)                 # 8-byte Folded Spill
	ldc1	$f0, 3760($16)
	sdc1	$f0, 12120($sp)                 # 8-byte Folded Spill
	ldc1	$f0, 3768($16)
	sdc1	$f0, 12112($sp)                 # 8-byte Folded Spill
	ldc1	$f0, 3776($16)
	sdc1	$f0, 12104($sp)                 # 8-byte Folded Spill
	ldc1	$f0, 3784($16)
	sdc1	$f0, 12096($sp)                 # 8-byte Folded Spill
	ldc1	$f0, 3792($16)
	sdc1	$f0, 12088($sp)                 # 8-byte Folded Spill
	ldc1	$f0, 3800($16)
	sdc1	$f0, 12080($sp)                 # 8-byte Folded Spill
	ldc1	$f0, 3808($16)
	sdc1	$f0, 12072($sp)                 # 8-byte Folded Spill
	ldc1	$f0, 3816($16)
	sdc1	$f0, 12064($sp)                 # 8-byte Folded Spill
	ldc1	$f0, 3824($16)
	sdc1	$f0, 12056($sp)                 # 8-byte Folded Spill
	ldc1	$f0, 3832($16)
	sdc1	$f0, 12048($sp)                 # 8-byte Folded Spill
	ldc1	$f0, 3840($16)
	sdc1	$f0, 12040($sp)                 # 8-byte Folded Spill
	ldc1	$f0, 3848($16)
	sdc1	$f0, 12032($sp)                 # 8-byte Folded Spill
	ldc1	$f0, 3856($16)
	sdc1	$f0, 12024($sp)                 # 8-byte Folded Spill
	ldc1	$f0, 3864($16)
	sdc1	$f0, 12016($sp)                 # 8-byte Folded Spill
	ldc1	$f0, 3872($16)
	sdc1	$f0, 12008($sp)                 # 8-byte Folded Spill
	ldc1	$f0, 3880($16)
	sdc1	$f0, 12000($sp)                 # 8-byte Folded Spill
	ldc1	$f0, 3888($16)
	sdc1	$f0, 11992($sp)                 # 8-byte Folded Spill
	ldc1	$f0, 3896($16)
	sdc1	$f0, 11984($sp)                 # 8-byte Folded Spill
	ldc1	$f0, 3904($16)
	sdc1	$f0, 11976($sp)                 # 8-byte Folded Spill
	ldc1	$f0, 3912($16)
	sdc1	$f0, 11968($sp)                 # 8-byte Folded Spill
	ldc1	$f0, 3920($16)
	sdc1	$f0, 11960($sp)                 # 8-byte Folded Spill
	ldc1	$f0, 3928($16)
	sdc1	$f0, 11952($sp)                 # 8-byte Folded Spill
	ldc1	$f0, 3936($16)
	sdc1	$f0, 11944($sp)                 # 8-byte Folded Spill
	ldc1	$f0, 3944($16)
	sdc1	$f0, 11936($sp)                 # 8-byte Folded Spill
	ldc1	$f0, 3952($16)
	sdc1	$f0, 11928($sp)                 # 8-byte Folded Spill
	ldc1	$f0, 3960($16)
	sdc1	$f0, 11920($sp)                 # 8-byte Folded Spill
	ldc1	$f0, 3968($16)
	sdc1	$f0, 11912($sp)                 # 8-byte Folded Spill
	ldc1	$f0, 3976($16)
	sdc1	$f0, 11904($sp)                 # 8-byte Folded Spill
	ldc1	$f0, 3984($16)
	sdc1	$f0, 11896($sp)                 # 8-byte Folded Spill
	ldc1	$f0, 3992($16)
	sdc1	$f0, 11888($sp)                 # 8-byte Folded Spill
	ldc1	$f0, 4000($16)
	sdc1	$f0, 11880($sp)                 # 8-byte Folded Spill
	ldc1	$f0, 4008($16)
	sdc1	$f0, 11872($sp)                 # 8-byte Folded Spill
	ldc1	$f0, 4016($16)
	sdc1	$f0, 11864($sp)                 # 8-byte Folded Spill
	ldc1	$f0, 4024($16)
	sdc1	$f0, 11856($sp)                 # 8-byte Folded Spill
	ldc1	$f0, 4032($16)
	sdc1	$f0, 11848($sp)                 # 8-byte Folded Spill
	ldc1	$f0, 4040($16)
	sdc1	$f0, 11840($sp)                 # 8-byte Folded Spill
	ldc1	$f0, 4048($16)
	sdc1	$f0, 11832($sp)                 # 8-byte Folded Spill
	ldc1	$f0, 4056($16)
	sdc1	$f0, 11824($sp)                 # 8-byte Folded Spill
	ldc1	$f0, 4064($16)
	sdc1	$f0, 11816($sp)                 # 8-byte Folded Spill
	ldc1	$f0, 4072($16)
	sdc1	$f0, 11808($sp)                 # 8-byte Folded Spill
	ldc1	$f0, 4080($16)
	sdc1	$f0, 11800($sp)                 # 8-byte Folded Spill
	ldc1	$f0, 4088($16)
	sdc1	$f0, 11792($sp)                 # 8-byte Folded Spill
	ldc1	$f0, 4096($16)
	sdc1	$f0, 11784($sp)                 # 8-byte Folded Spill
	ldc1	$f0, 4104($16)
	sdc1	$f0, 11776($sp)                 # 8-byte Folded Spill
	ldc1	$f0, 4112($16)
	sdc1	$f0, 11768($sp)                 # 8-byte Folded Spill
	ldc1	$f0, 4120($16)
	sdc1	$f0, 11760($sp)                 # 8-byte Folded Spill
	ldc1	$f0, 4128($16)
	sdc1	$f0, 11752($sp)                 # 8-byte Folded Spill
	ldc1	$f0, 4136($16)
	sdc1	$f0, 11744($sp)                 # 8-byte Folded Spill
	ldc1	$f0, 4144($16)
	sdc1	$f0, 11736($sp)                 # 8-byte Folded Spill
	ldc1	$f0, 4152($16)
	sdc1	$f0, 11728($sp)                 # 8-byte Folded Spill
	ldc1	$f0, 4160($16)
	sdc1	$f0, 11720($sp)                 # 8-byte Folded Spill
	ldc1	$f0, 4168($16)
	sdc1	$f0, 11712($sp)                 # 8-byte Folded Spill
	ldc1	$f0, 4176($16)
	sdc1	$f0, 11704($sp)                 # 8-byte Folded Spill
	ldc1	$f0, 4184($16)
	sdc1	$f0, 11696($sp)                 # 8-byte Folded Spill
	ldc1	$f0, 4192($16)
	sdc1	$f0, 11688($sp)                 # 8-byte Folded Spill
	ldc1	$f0, 4200($16)
	sdc1	$f0, 11680($sp)                 # 8-byte Folded Spill
	ldc1	$f0, 4208($16)
	sdc1	$f0, 11672($sp)                 # 8-byte Folded Spill
	ldc1	$f0, 4216($16)
	sdc1	$f0, 11664($sp)                 # 8-byte Folded Spill
	ldc1	$f0, 4224($16)
	sdc1	$f0, 11656($sp)                 # 8-byte Folded Spill
	ldc1	$f0, 4232($16)
	sdc1	$f0, 11648($sp)                 # 8-byte Folded Spill
	ldc1	$f0, 4240($16)
	sdc1	$f0, 11640($sp)                 # 8-byte Folded Spill
	ldc1	$f0, 4248($16)
	sdc1	$f0, 11632($sp)                 # 8-byte Folded Spill
	ldc1	$f0, 4256($16)
	sdc1	$f0, 11624($sp)                 # 8-byte Folded Spill
	ldc1	$f0, 4264($16)
	sdc1	$f0, 11616($sp)                 # 8-byte Folded Spill
	ldc1	$f0, 4272($16)
	sdc1	$f0, 11608($sp)                 # 8-byte Folded Spill
	ldc1	$f0, 4280($16)
	sdc1	$f0, 11600($sp)                 # 8-byte Folded Spill
	ldc1	$f0, 4288($16)
	sdc1	$f0, 11592($sp)                 # 8-byte Folded Spill
	ldc1	$f0, 4296($16)
	sdc1	$f0, 11584($sp)                 # 8-byte Folded Spill
	ldc1	$f0, 4304($16)
	sdc1	$f0, 11576($sp)                 # 8-byte Folded Spill
	ldc1	$f0, 4312($16)
	sdc1	$f0, 11568($sp)                 # 8-byte Folded Spill
	ldc1	$f0, 4320($16)
	sdc1	$f0, 11560($sp)                 # 8-byte Folded Spill
	ldc1	$f0, 4328($16)
	sdc1	$f0, 11552($sp)                 # 8-byte Folded Spill
	ldc1	$f0, 4336($16)
	sdc1	$f0, 11544($sp)                 # 8-byte Folded Spill
	ldc1	$f0, 4344($16)
	sdc1	$f0, 11536($sp)                 # 8-byte Folded Spill
	ldc1	$f0, 4352($16)
	sdc1	$f0, 11528($sp)                 # 8-byte Folded Spill
	ldc1	$f0, 4360($16)
	sdc1	$f0, 11520($sp)                 # 8-byte Folded Spill
	ldc1	$f0, 4368($16)
	sdc1	$f0, 11512($sp)                 # 8-byte Folded Spill
	ldc1	$f0, 4376($16)
	sdc1	$f0, 11504($sp)                 # 8-byte Folded Spill
	ldc1	$f0, 4384($16)
	sdc1	$f0, 11496($sp)                 # 8-byte Folded Spill
	ldc1	$f0, 4392($16)
	sdc1	$f0, 11488($sp)                 # 8-byte Folded Spill
	ldc1	$f0, 4400($16)
	sdc1	$f0, 11480($sp)                 # 8-byte Folded Spill
	ldc1	$f0, 4408($16)
	sdc1	$f0, 11472($sp)                 # 8-byte Folded Spill
	ldc1	$f0, 4416($16)
	sdc1	$f0, 11464($sp)                 # 8-byte Folded Spill
	ldc1	$f0, 4424($16)
	sdc1	$f0, 11456($sp)                 # 8-byte Folded Spill
	ldc1	$f0, 4432($16)
	sdc1	$f0, 11448($sp)                 # 8-byte Folded Spill
	ldc1	$f0, 4440($16)
	sdc1	$f0, 11440($sp)                 # 8-byte Folded Spill
	ldc1	$f0, 4448($16)
	sdc1	$f0, 11432($sp)                 # 8-byte Folded Spill
	ldc1	$f0, 4456($16)
	sdc1	$f0, 11424($sp)                 # 8-byte Folded Spill
	ldc1	$f0, 4464($16)
	sdc1	$f0, 11416($sp)                 # 8-byte Folded Spill
	ldc1	$f0, 4472($16)
	sdc1	$f0, 11408($sp)                 # 8-byte Folded Spill
	ldc1	$f0, 4480($16)
	sdc1	$f0, 11400($sp)                 # 8-byte Folded Spill
	ldc1	$f0, 4488($16)
	sdc1	$f0, 11392($sp)                 # 8-byte Folded Spill
	ldc1	$f0, 4496($16)
	sdc1	$f0, 11384($sp)                 # 8-byte Folded Spill
	ldc1	$f0, 4504($16)
	sdc1	$f0, 11376($sp)                 # 8-byte Folded Spill
	ldc1	$f0, 4512($16)
	sdc1	$f0, 11368($sp)                 # 8-byte Folded Spill
	ldc1	$f0, 4520($16)
	sdc1	$f0, 11360($sp)                 # 8-byte Folded Spill
	ldc1	$f0, 4528($16)
	sdc1	$f0, 11352($sp)                 # 8-byte Folded Spill
	ldc1	$f0, 4536($16)
	sdc1	$f0, 11344($sp)                 # 8-byte Folded Spill
	ldc1	$f0, 4544($16)
	sdc1	$f0, 11336($sp)                 # 8-byte Folded Spill
	ldc1	$f0, 4552($16)
	sdc1	$f0, 11328($sp)                 # 8-byte Folded Spill
	ldc1	$f0, 4560($16)
	sdc1	$f0, 11320($sp)                 # 8-byte Folded Spill
	ldc1	$f0, 4568($16)
	sdc1	$f0, 11312($sp)                 # 8-byte Folded Spill
	ldc1	$f0, 4576($16)
	sdc1	$f0, 11304($sp)                 # 8-byte Folded Spill
	ldc1	$f0, 4584($16)
	sdc1	$f0, 11296($sp)                 # 8-byte Folded Spill
	ldc1	$f0, 4592($16)
	sdc1	$f0, 11288($sp)                 # 8-byte Folded Spill
	ldc1	$f0, 4600($16)
	sdc1	$f0, 11280($sp)                 # 8-byte Folded Spill
	ldc1	$f0, 4608($16)
	sdc1	$f0, 11272($sp)                 # 8-byte Folded Spill
	ldc1	$f0, 4616($16)
	sdc1	$f0, 11264($sp)                 # 8-byte Folded Spill
	ldc1	$f0, 4624($16)
	sdc1	$f0, 11256($sp)                 # 8-byte Folded Spill
	ldc1	$f0, 4632($16)
	sdc1	$f0, 11248($sp)                 # 8-byte Folded Spill
	ldc1	$f0, 4640($16)
	sdc1	$f0, 11240($sp)                 # 8-byte Folded Spill
	ldc1	$f0, 4648($16)
	sdc1	$f0, 11232($sp)                 # 8-byte Folded Spill
	ldc1	$f0, 4656($16)
	sdc1	$f0, 11224($sp)                 # 8-byte Folded Spill
	ldc1	$f0, 4664($16)
	sdc1	$f0, 11216($sp)                 # 8-byte Folded Spill
	ldc1	$f0, 4672($16)
	sdc1	$f0, 11208($sp)                 # 8-byte Folded Spill
	ldc1	$f0, 4680($16)
	sdc1	$f0, 11200($sp)                 # 8-byte Folded Spill
	ldc1	$f0, 4688($16)
	sdc1	$f0, 11192($sp)                 # 8-byte Folded Spill
	ldc1	$f0, 4696($16)
	sdc1	$f0, 11184($sp)                 # 8-byte Folded Spill
	ldc1	$f0, 4704($16)
	sdc1	$f0, 11176($sp)                 # 8-byte Folded Spill
	ldc1	$f0, 4712($16)
	sdc1	$f0, 11168($sp)                 # 8-byte Folded Spill
	ldc1	$f0, 4720($16)
	sdc1	$f0, 11160($sp)                 # 8-byte Folded Spill
	ldc1	$f0, 4728($16)
	sdc1	$f0, 11152($sp)                 # 8-byte Folded Spill
	ldc1	$f0, 4736($16)
	sdc1	$f0, 11144($sp)                 # 8-byte Folded Spill
	ldc1	$f0, 4744($16)
	sdc1	$f0, 11136($sp)                 # 8-byte Folded Spill
	ldc1	$f0, 4752($16)
	sdc1	$f0, 11128($sp)                 # 8-byte Folded Spill
	ldc1	$f0, 4760($16)
	sdc1	$f0, 11120($sp)                 # 8-byte Folded Spill
	ldc1	$f0, 4768($16)
	sdc1	$f0, 11112($sp)                 # 8-byte Folded Spill
	ldc1	$f0, 4776($16)
	sdc1	$f0, 11104($sp)                 # 8-byte Folded Spill
	ldc1	$f0, 4784($16)
	sdc1	$f0, 11096($sp)                 # 8-byte Folded Spill
	ldc1	$f0, 4792($16)
	sdc1	$f0, 11088($sp)                 # 8-byte Folded Spill
	ldc1	$f0, 4800($16)
	sdc1	$f0, 11080($sp)                 # 8-byte Folded Spill
	ldc1	$f0, 4808($16)
	sdc1	$f0, 11072($sp)                 # 8-byte Folded Spill
	ldc1	$f0, 4816($16)
	sdc1	$f0, 11064($sp)                 # 8-byte Folded Spill
	ldc1	$f0, 4824($16)
	sdc1	$f0, 11056($sp)                 # 8-byte Folded Spill
	ldc1	$f0, 4832($16)
	sdc1	$f0, 11048($sp)                 # 8-byte Folded Spill
	ldc1	$f0, 4840($16)
	sdc1	$f0, 11040($sp)                 # 8-byte Folded Spill
	ldc1	$f0, 4848($16)
	sdc1	$f0, 11032($sp)                 # 8-byte Folded Spill
	ldc1	$f0, 4856($16)
	sdc1	$f0, 11024($sp)                 # 8-byte Folded Spill
	ldc1	$f0, 4864($16)
	sdc1	$f0, 11016($sp)                 # 8-byte Folded Spill
	ldc1	$f0, 4872($16)
	sdc1	$f0, 11008($sp)                 # 8-byte Folded Spill
	ldc1	$f0, 4880($16)
	sdc1	$f0, 11000($sp)                 # 8-byte Folded Spill
	ldc1	$f0, 4888($16)
	sdc1	$f0, 10992($sp)                 # 8-byte Folded Spill
	ldc1	$f0, 4896($16)
	sdc1	$f0, 10984($sp)                 # 8-byte Folded Spill
	ldc1	$f0, 4904($16)
	sdc1	$f0, 10976($sp)                 # 8-byte Folded Spill
	ldc1	$f0, 4912($16)
	sdc1	$f0, 10968($sp)                 # 8-byte Folded Spill
	ldc1	$f0, 4920($16)
	sdc1	$f0, 10960($sp)                 # 8-byte Folded Spill
	ldc1	$f0, 4928($16)
	sdc1	$f0, 10952($sp)                 # 8-byte Folded Spill
	ldc1	$f0, 4936($16)
	sdc1	$f0, 10944($sp)                 # 8-byte Folded Spill
	ldc1	$f0, 4944($16)
	sdc1	$f0, 10936($sp)                 # 8-byte Folded Spill
	ldc1	$f0, 4952($16)
	sdc1	$f0, 10928($sp)                 # 8-byte Folded Spill
	ldc1	$f0, 4960($16)
	sdc1	$f0, 10920($sp)                 # 8-byte Folded Spill
	ldc1	$f0, 4968($16)
	sdc1	$f0, 10912($sp)                 # 8-byte Folded Spill
	ldc1	$f0, 4976($16)
	sdc1	$f0, 10904($sp)                 # 8-byte Folded Spill
	ldc1	$f0, 4984($16)
	sdc1	$f0, 10896($sp)                 # 8-byte Folded Spill
	ldc1	$f0, 4992($16)
	sdc1	$f0, 10888($sp)                 # 8-byte Folded Spill
	ldc1	$f0, 5000($16)
	sdc1	$f0, 10880($sp)                 # 8-byte Folded Spill
	ldc1	$f0, 5008($16)
	sdc1	$f0, 10872($sp)                 # 8-byte Folded Spill
	ldc1	$f0, 5016($16)
	sdc1	$f0, 10864($sp)                 # 8-byte Folded Spill
	ldc1	$f0, 5024($16)
	sdc1	$f0, 10856($sp)                 # 8-byte Folded Spill
	ldc1	$f0, 5032($16)
	sdc1	$f0, 10848($sp)                 # 8-byte Folded Spill
	ldc1	$f0, 5040($16)
	sdc1	$f0, 10840($sp)                 # 8-byte Folded Spill
	ldc1	$f0, 5048($16)
	sdc1	$f0, 10832($sp)                 # 8-byte Folded Spill
	ldc1	$f0, 5056($16)
	sdc1	$f0, 10824($sp)                 # 8-byte Folded Spill
	ldc1	$f0, 5064($16)
	sdc1	$f0, 10816($sp)                 # 8-byte Folded Spill
	ldc1	$f0, 5072($16)
	sdc1	$f0, 10808($sp)                 # 8-byte Folded Spill
	ldc1	$f0, 5080($16)
	sdc1	$f0, 10800($sp)                 # 8-byte Folded Spill
	ldc1	$f0, 5088($16)
	sdc1	$f0, 10792($sp)                 # 8-byte Folded Spill
	ldc1	$f0, 5096($16)
	sdc1	$f0, 10784($sp)                 # 8-byte Folded Spill
	ldc1	$f0, 5104($16)
	sdc1	$f0, 10776($sp)                 # 8-byte Folded Spill
	ldc1	$f0, 5112($16)
	sdc1	$f0, 10768($sp)                 # 8-byte Folded Spill
	ldc1	$f0, 5120($16)
	sdc1	$f0, 10760($sp)                 # 8-byte Folded Spill
	ldc1	$f0, 5128($16)
	sdc1	$f0, 10752($sp)                 # 8-byte Folded Spill
	ldc1	$f0, 5136($16)
	sdc1	$f0, 10744($sp)                 # 8-byte Folded Spill
	ldc1	$f0, 5144($16)
	sdc1	$f0, 10736($sp)                 # 8-byte Folded Spill
	ldc1	$f0, 5152($16)
	sdc1	$f0, 10728($sp)                 # 8-byte Folded Spill
	ldc1	$f0, 5160($16)
	sdc1	$f0, 10720($sp)                 # 8-byte Folded Spill
	ldc1	$f0, 5168($16)
	sdc1	$f0, 10712($sp)                 # 8-byte Folded Spill
	ldc1	$f0, 5176($16)
	sdc1	$f0, 10704($sp)                 # 8-byte Folded Spill
	ldc1	$f0, 5184($16)
	sdc1	$f0, 10696($sp)                 # 8-byte Folded Spill
	ldc1	$f0, 5192($16)
	sdc1	$f0, 10688($sp)                 # 8-byte Folded Spill
	ldc1	$f0, 5200($16)
	sdc1	$f0, 10680($sp)                 # 8-byte Folded Spill
	ldc1	$f0, 5208($16)
	sdc1	$f0, 10672($sp)                 # 8-byte Folded Spill
	ldc1	$f0, 5216($16)
	sdc1	$f0, 10664($sp)                 # 8-byte Folded Spill
	ldc1	$f0, 5224($16)
	sdc1	$f0, 10656($sp)                 # 8-byte Folded Spill
	ldc1	$f0, 5232($16)
	sdc1	$f0, 10648($sp)                 # 8-byte Folded Spill
	ldc1	$f0, 5240($16)
	sdc1	$f0, 10640($sp)                 # 8-byte Folded Spill
	ldc1	$f0, 5248($16)
	sdc1	$f0, 10632($sp)                 # 8-byte Folded Spill
	ldc1	$f0, 5256($16)
	sdc1	$f0, 10624($sp)                 # 8-byte Folded Spill
	ldc1	$f0, 5264($16)
	sdc1	$f0, 10616($sp)                 # 8-byte Folded Spill
	ldc1	$f0, 5272($16)
	sdc1	$f0, 10608($sp)                 # 8-byte Folded Spill
	ldc1	$f0, 5280($16)
	sdc1	$f0, 10600($sp)                 # 8-byte Folded Spill
	ldc1	$f0, 5288($16)
	sdc1	$f0, 10592($sp)                 # 8-byte Folded Spill
	ldc1	$f0, 5296($16)
	sdc1	$f0, 10584($sp)                 # 8-byte Folded Spill
	ldc1	$f0, 5304($16)
	sdc1	$f0, 10576($sp)                 # 8-byte Folded Spill
	ldc1	$f0, 5312($16)
	sdc1	$f0, 10568($sp)                 # 8-byte Folded Spill
	ldc1	$f0, 5320($16)
	sdc1	$f0, 10560($sp)                 # 8-byte Folded Spill
	ldc1	$f0, 5328($16)
	sdc1	$f0, 10552($sp)                 # 8-byte Folded Spill
	ldc1	$f0, 5336($16)
	sdc1	$f0, 10544($sp)                 # 8-byte Folded Spill
	ldc1	$f0, 5344($16)
	sdc1	$f0, 10536($sp)                 # 8-byte Folded Spill
	ldc1	$f0, 5352($16)
	sdc1	$f0, 10528($sp)                 # 8-byte Folded Spill
	ldc1	$f0, 5360($16)
	sdc1	$f0, 10520($sp)                 # 8-byte Folded Spill
	ldc1	$f0, 5368($16)
	sdc1	$f0, 10512($sp)                 # 8-byte Folded Spill
	ldc1	$f0, 5376($16)
	sdc1	$f0, 10504($sp)                 # 8-byte Folded Spill
	ldc1	$f0, 5384($16)
	sdc1	$f0, 10496($sp)                 # 8-byte Folded Spill
	ldc1	$f0, 5392($16)
	sdc1	$f0, 10488($sp)                 # 8-byte Folded Spill
	ldc1	$f0, 5400($16)
	sdc1	$f0, 10480($sp)                 # 8-byte Folded Spill
	ldc1	$f0, 5408($16)
	sdc1	$f0, 10472($sp)                 # 8-byte Folded Spill
	ldc1	$f0, 5416($16)
	sdc1	$f0, 10464($sp)                 # 8-byte Folded Spill
	ldc1	$f0, 5424($16)
	sdc1	$f0, 10456($sp)                 # 8-byte Folded Spill
	ldc1	$f0, 5432($16)
	sdc1	$f0, 10448($sp)                 # 8-byte Folded Spill
	ldc1	$f0, 5440($16)
	sdc1	$f0, 10440($sp)                 # 8-byte Folded Spill
	ldc1	$f0, 5448($16)
	sdc1	$f0, 10432($sp)                 # 8-byte Folded Spill
	ldc1	$f0, 5456($16)
	sdc1	$f0, 10424($sp)                 # 8-byte Folded Spill
	ldc1	$f0, 5464($16)
	sdc1	$f0, 10416($sp)                 # 8-byte Folded Spill
	ldc1	$f0, 5472($16)
	sdc1	$f0, 10408($sp)                 # 8-byte Folded Spill
	ldc1	$f0, 5480($16)
	sdc1	$f0, 10400($sp)                 # 8-byte Folded Spill
	ldc1	$f0, 5488($16)
	sdc1	$f0, 10392($sp)                 # 8-byte Folded Spill
	ldc1	$f0, 5496($16)
	sdc1	$f0, 10384($sp)                 # 8-byte Folded Spill
	ldc1	$f0, 5504($16)
	sdc1	$f0, 10376($sp)                 # 8-byte Folded Spill
	ldc1	$f0, 5512($16)
	sdc1	$f0, 10368($sp)                 # 8-byte Folded Spill
	ldc1	$f0, 5520($16)
	sdc1	$f0, 10360($sp)                 # 8-byte Folded Spill
	ldc1	$f0, 5528($16)
	sdc1	$f0, 10352($sp)                 # 8-byte Folded Spill
	ldc1	$f0, 5536($16)
	sdc1	$f0, 10344($sp)                 # 8-byte Folded Spill
	ldc1	$f0, 5544($16)
	sdc1	$f0, 10336($sp)                 # 8-byte Folded Spill
	ldc1	$f0, 5552($16)
	sdc1	$f0, 10328($sp)                 # 8-byte Folded Spill
	ldc1	$f0, 5560($16)
	sdc1	$f0, 10320($sp)                 # 8-byte Folded Spill
	ldc1	$f0, 5568($16)
	sdc1	$f0, 10312($sp)                 # 8-byte Folded Spill
	ldc1	$f0, 5576($16)
	sdc1	$f0, 10304($sp)                 # 8-byte Folded Spill
	ldc1	$f0, 5584($16)
	sdc1	$f0, 10296($sp)                 # 8-byte Folded Spill
	ldc1	$f0, 5592($16)
	sdc1	$f0, 10288($sp)                 # 8-byte Folded Spill
	ldc1	$f0, 5600($16)
	sdc1	$f0, 10280($sp)                 # 8-byte Folded Spill
	ldc1	$f0, 5608($16)
	sdc1	$f0, 10272($sp)                 # 8-byte Folded Spill
	ldc1	$f0, 5616($16)
	sdc1	$f0, 10264($sp)                 # 8-byte Folded Spill
	ldc1	$f0, 5624($16)
	sdc1	$f0, 10256($sp)                 # 8-byte Folded Spill
	ldc1	$f0, 5632($16)
	sdc1	$f0, 10248($sp)                 # 8-byte Folded Spill
	ldc1	$f0, 5640($16)
	sdc1	$f0, 10240($sp)                 # 8-byte Folded Spill
	ldc1	$f0, 5648($16)
	sdc1	$f0, 10232($sp)                 # 8-byte Folded Spill
	ldc1	$f0, 5656($16)
	sdc1	$f0, 10224($sp)                 # 8-byte Folded Spill
	ldc1	$f0, 5664($16)
	sdc1	$f0, 10216($sp)                 # 8-byte Folded Spill
	ldc1	$f0, 5672($16)
	sdc1	$f0, 10208($sp)                 # 8-byte Folded Spill
	ldc1	$f0, 5680($16)
	sdc1	$f0, 10200($sp)                 # 8-byte Folded Spill
	ldc1	$f0, 5688($16)
	sdc1	$f0, 10192($sp)                 # 8-byte Folded Spill
	ldc1	$f0, 5696($16)
	sdc1	$f0, 10184($sp)                 # 8-byte Folded Spill
	ldc1	$f0, 5704($16)
	sdc1	$f0, 10176($sp)                 # 8-byte Folded Spill
	ldc1	$f0, 5712($16)
	sdc1	$f0, 10168($sp)                 # 8-byte Folded Spill
	ldc1	$f0, 5720($16)
	sdc1	$f0, 10160($sp)                 # 8-byte Folded Spill
	ldc1	$f0, 5728($16)
	sdc1	$f0, 10152($sp)                 # 8-byte Folded Spill
	ldc1	$f0, 5736($16)
	sdc1	$f0, 10144($sp)                 # 8-byte Folded Spill
	ldc1	$f0, 5744($16)
	sdc1	$f0, 10136($sp)                 # 8-byte Folded Spill
	ldc1	$f0, 5752($16)
	sdc1	$f0, 10128($sp)                 # 8-byte Folded Spill
	ldc1	$f0, 5760($16)
	sdc1	$f0, 10120($sp)                 # 8-byte Folded Spill
	ldc1	$f0, 5768($16)
	sdc1	$f0, 10112($sp)                 # 8-byte Folded Spill
	ldc1	$f0, 5776($16)
	sdc1	$f0, 10104($sp)                 # 8-byte Folded Spill
	ldc1	$f0, 5784($16)
	sdc1	$f0, 10096($sp)                 # 8-byte Folded Spill
	ldc1	$f0, 5792($16)
	sdc1	$f0, 10088($sp)                 # 8-byte Folded Spill
	ldc1	$f0, 5800($16)
	sdc1	$f0, 10080($sp)                 # 8-byte Folded Spill
	ldc1	$f0, 5808($16)
	sdc1	$f0, 10072($sp)                 # 8-byte Folded Spill
	ldc1	$f0, 5816($16)
	sdc1	$f0, 10064($sp)                 # 8-byte Folded Spill
	ldc1	$f0, 5824($16)
	sdc1	$f0, 10056($sp)                 # 8-byte Folded Spill
	ldc1	$f0, 5832($16)
	sdc1	$f0, 10048($sp)                 # 8-byte Folded Spill
	ldc1	$f0, 5840($16)
	sdc1	$f0, 10040($sp)                 # 8-byte Folded Spill
	ldc1	$f0, 5848($16)
	sdc1	$f0, 10032($sp)                 # 8-byte Folded Spill
	ldc1	$f0, 5856($16)
	sdc1	$f0, 10024($sp)                 # 8-byte Folded Spill
	ldc1	$f0, 5864($16)
	sdc1	$f0, 10016($sp)                 # 8-byte Folded Spill
	ldc1	$f0, 5872($16)
	sdc1	$f0, 10008($sp)                 # 8-byte Folded Spill
	ldc1	$f0, 5880($16)
	sdc1	$f0, 10000($sp)                 # 8-byte Folded Spill
	ldc1	$f0, 5888($16)
	sdc1	$f0, 9992($sp)                  # 8-byte Folded Spill
	ldc1	$f0, 5896($16)
	sdc1	$f0, 9984($sp)                  # 8-byte Folded Spill
	ldc1	$f0, 5904($16)
	sdc1	$f0, 9976($sp)                  # 8-byte Folded Spill
	ldc1	$f0, 5912($16)
	sdc1	$f0, 9968($sp)                  # 8-byte Folded Spill
	ldc1	$f0, 5920($16)
	sdc1	$f0, 9960($sp)                  # 8-byte Folded Spill
	ldc1	$f0, 5928($16)
	sdc1	$f0, 9952($sp)                  # 8-byte Folded Spill
	ldc1	$f0, 5936($16)
	sdc1	$f0, 9944($sp)                  # 8-byte Folded Spill
	ldc1	$f0, 5944($16)
	sdc1	$f0, 9936($sp)                  # 8-byte Folded Spill
	ldc1	$f0, 5952($16)
	sdc1	$f0, 9928($sp)                  # 8-byte Folded Spill
	ldc1	$f0, 5960($16)
	sdc1	$f0, 9920($sp)                  # 8-byte Folded Spill
	ldc1	$f0, 5968($16)
	sdc1	$f0, 9912($sp)                  # 8-byte Folded Spill
	ldc1	$f0, 5976($16)
	sdc1	$f0, 9904($sp)                  # 8-byte Folded Spill
	ldc1	$f0, 5984($16)
	sdc1	$f0, 9896($sp)                  # 8-byte Folded Spill
	ldc1	$f0, 5992($16)
	sdc1	$f0, 9888($sp)                  # 8-byte Folded Spill
	ldc1	$f0, 6000($16)
	sdc1	$f0, 9880($sp)                  # 8-byte Folded Spill
	ldc1	$f0, 6008($16)
	sdc1	$f0, 9872($sp)                  # 8-byte Folded Spill
	ldc1	$f0, 6016($16)
	sdc1	$f0, 9864($sp)                  # 8-byte Folded Spill
	ldc1	$f0, 6024($16)
	sdc1	$f0, 9856($sp)                  # 8-byte Folded Spill
	ldc1	$f0, 6032($16)
	sdc1	$f0, 9848($sp)                  # 8-byte Folded Spill
	ldc1	$f0, 6040($16)
	sdc1	$f0, 9840($sp)                  # 8-byte Folded Spill
	ldc1	$f0, 6048($16)
	sdc1	$f0, 9832($sp)                  # 8-byte Folded Spill
	ldc1	$f0, 6056($16)
	sdc1	$f0, 9824($sp)                  # 8-byte Folded Spill
	ldc1	$f0, 6064($16)
	sdc1	$f0, 9816($sp)                  # 8-byte Folded Spill
	ldc1	$f0, 6072($16)
	sdc1	$f0, 9808($sp)                  # 8-byte Folded Spill
	ldc1	$f0, 6080($16)
	sdc1	$f0, 9800($sp)                  # 8-byte Folded Spill
	ldc1	$f0, 6088($16)
	sdc1	$f0, 9792($sp)                  # 8-byte Folded Spill
	ldc1	$f0, 6096($16)
	sdc1	$f0, 9784($sp)                  # 8-byte Folded Spill
	ldc1	$f0, 6104($16)
	sdc1	$f0, 9776($sp)                  # 8-byte Folded Spill
	ldc1	$f0, 6112($16)
	sdc1	$f0, 9768($sp)                  # 8-byte Folded Spill
	ldc1	$f0, 6120($16)
	sdc1	$f0, 9760($sp)                  # 8-byte Folded Spill
	ldc1	$f0, 6128($16)
	sdc1	$f0, 9752($sp)                  # 8-byte Folded Spill
	ldc1	$f0, 6136($16)
	sdc1	$f0, 9744($sp)                  # 8-byte Folded Spill
	ldc1	$f0, 6144($16)
	sdc1	$f0, 9736($sp)                  # 8-byte Folded Spill
	ldc1	$f0, 6152($16)
	sdc1	$f0, 9728($sp)                  # 8-byte Folded Spill
	ldc1	$f0, 6160($16)
	sdc1	$f0, 9720($sp)                  # 8-byte Folded Spill
	ldc1	$f0, 6168($16)
	sdc1	$f0, 9712($sp)                  # 8-byte Folded Spill
	ldc1	$f0, 6176($16)
	sdc1	$f0, 9704($sp)                  # 8-byte Folded Spill
	ldc1	$f0, 6184($16)
	sdc1	$f0, 9696($sp)                  # 8-byte Folded Spill
	ldc1	$f0, 6192($16)
	sdc1	$f0, 9688($sp)                  # 8-byte Folded Spill
	ldc1	$f0, 6200($16)
	sdc1	$f0, 9680($sp)                  # 8-byte Folded Spill
	ldc1	$f0, 6208($16)
	sdc1	$f0, 9672($sp)                  # 8-byte Folded Spill
	ldc1	$f0, 6216($16)
	sdc1	$f0, 9664($sp)                  # 8-byte Folded Spill
	ldc1	$f0, 6224($16)
	sdc1	$f0, 9656($sp)                  # 8-byte Folded Spill
	ldc1	$f0, 6232($16)
	sdc1	$f0, 9648($sp)                  # 8-byte Folded Spill
	ldc1	$f0, 6240($16)
	sdc1	$f0, 9640($sp)                  # 8-byte Folded Spill
	ldc1	$f0, 6248($16)
	sdc1	$f0, 9632($sp)                  # 8-byte Folded Spill
	ldc1	$f0, 6256($16)
	sdc1	$f0, 9624($sp)                  # 8-byte Folded Spill
	ldc1	$f0, 6264($16)
	sdc1	$f0, 9616($sp)                  # 8-byte Folded Spill
	ldc1	$f0, 6272($16)
	sdc1	$f0, 9608($sp)                  # 8-byte Folded Spill
	ldc1	$f0, 6280($16)
	sdc1	$f0, 9600($sp)                  # 8-byte Folded Spill
	ldc1	$f0, 6288($16)
	sdc1	$f0, 9592($sp)                  # 8-byte Folded Spill
	ldc1	$f0, 6296($16)
	sdc1	$f0, 9584($sp)                  # 8-byte Folded Spill
	ldc1	$f0, 6304($16)
	sdc1	$f0, 9576($sp)                  # 8-byte Folded Spill
	ldc1	$f0, 6312($16)
	sdc1	$f0, 9568($sp)                  # 8-byte Folded Spill
	ldc1	$f0, 6320($16)
	sdc1	$f0, 9560($sp)                  # 8-byte Folded Spill
	ldc1	$f0, 6328($16)
	sdc1	$f0, 9552($sp)                  # 8-byte Folded Spill
	ldc1	$f0, 6336($16)
	sdc1	$f0, 9544($sp)                  # 8-byte Folded Spill
	ldc1	$f0, 6344($16)
	sdc1	$f0, 9536($sp)                  # 8-byte Folded Spill
	ldc1	$f0, 6352($16)
	sdc1	$f0, 9528($sp)                  # 8-byte Folded Spill
	ldc1	$f0, 6360($16)
	sdc1	$f0, 9520($sp)                  # 8-byte Folded Spill
	ldc1	$f0, 6368($16)
	sdc1	$f0, 9512($sp)                  # 8-byte Folded Spill
	ldc1	$f0, 6376($16)
	sdc1	$f0, 9504($sp)                  # 8-byte Folded Spill
	ldc1	$f0, 6384($16)
	sdc1	$f0, 9496($sp)                  # 8-byte Folded Spill
	ldc1	$f0, 6392($16)
	sdc1	$f0, 9488($sp)                  # 8-byte Folded Spill
	ldc1	$f0, 6400($16)
	sdc1	$f0, 9480($sp)                  # 8-byte Folded Spill
	ldc1	$f0, 6408($16)
	sdc1	$f0, 9472($sp)                  # 8-byte Folded Spill
	ldc1	$f0, 6416($16)
	sdc1	$f0, 9464($sp)                  # 8-byte Folded Spill
	ldc1	$f0, 6424($16)
	sdc1	$f0, 9456($sp)                  # 8-byte Folded Spill
	ldc1	$f0, 6432($16)
	sdc1	$f0, 9448($sp)                  # 8-byte Folded Spill
	ldc1	$f0, 6440($16)
	sdc1	$f0, 9440($sp)                  # 8-byte Folded Spill
	ldc1	$f0, 6448($16)
	sdc1	$f0, 9432($sp)                  # 8-byte Folded Spill
	ldc1	$f0, 6456($16)
	sdc1	$f0, 9424($sp)                  # 8-byte Folded Spill
	ldc1	$f0, 6464($16)
	sdc1	$f0, 9416($sp)                  # 8-byte Folded Spill
	ldc1	$f0, 6472($16)
	sdc1	$f0, 9408($sp)                  # 8-byte Folded Spill
	ldc1	$f0, 6480($16)
	sdc1	$f0, 9400($sp)                  # 8-byte Folded Spill
	ldc1	$f0, 6488($16)
	sdc1	$f0, 9392($sp)                  # 8-byte Folded Spill
	ldc1	$f0, 6496($16)
	sdc1	$f0, 9384($sp)                  # 8-byte Folded Spill
	ldc1	$f0, 6504($16)
	sdc1	$f0, 9376($sp)                  # 8-byte Folded Spill
	ldc1	$f0, 6512($16)
	sdc1	$f0, 9368($sp)                  # 8-byte Folded Spill
	ldc1	$f0, 6520($16)
	sdc1	$f0, 9360($sp)                  # 8-byte Folded Spill
	ldc1	$f0, 6528($16)
	sdc1	$f0, 9352($sp)                  # 8-byte Folded Spill
	ldc1	$f0, 6536($16)
	sdc1	$f0, 9344($sp)                  # 8-byte Folded Spill
	ldc1	$f0, 6544($16)
	sdc1	$f0, 9336($sp)                  # 8-byte Folded Spill
	ldc1	$f0, 6552($16)
	sdc1	$f0, 9328($sp)                  # 8-byte Folded Spill
	ldc1	$f0, 6560($16)
	sdc1	$f0, 9320($sp)                  # 8-byte Folded Spill
	ldc1	$f0, 6568($16)
	sdc1	$f0, 9312($sp)                  # 8-byte Folded Spill
	ldc1	$f0, 6576($16)
	sdc1	$f0, 9304($sp)                  # 8-byte Folded Spill
	ldc1	$f0, 6584($16)
	sdc1	$f0, 9296($sp)                  # 8-byte Folded Spill
	ldc1	$f0, 6592($16)
	sdc1	$f0, 9288($sp)                  # 8-byte Folded Spill
	ldc1	$f0, 6600($16)
	sdc1	$f0, 9280($sp)                  # 8-byte Folded Spill
	ldc1	$f0, 6608($16)
	sdc1	$f0, 9272($sp)                  # 8-byte Folded Spill
	ldc1	$f0, 6616($16)
	sdc1	$f0, 9264($sp)                  # 8-byte Folded Spill
	ldc1	$f0, 6624($16)
	sdc1	$f0, 9256($sp)                  # 8-byte Folded Spill
	ldc1	$f0, 6632($16)
	sdc1	$f0, 9248($sp)                  # 8-byte Folded Spill
	ldc1	$f0, 6640($16)
	sdc1	$f0, 9240($sp)                  # 8-byte Folded Spill
	ldc1	$f0, 6648($16)
	sdc1	$f0, 9232($sp)                  # 8-byte Folded Spill
	ldc1	$f0, 6656($16)
	sdc1	$f0, 9224($sp)                  # 8-byte Folded Spill
	ldc1	$f0, 6664($16)
	sdc1	$f0, 9216($sp)                  # 8-byte Folded Spill
	ldc1	$f0, 6672($16)
	sdc1	$f0, 9208($sp)                  # 8-byte Folded Spill
	ldc1	$f0, 6680($16)
	sdc1	$f0, 9200($sp)                  # 8-byte Folded Spill
	ldc1	$f0, 6688($16)
	sdc1	$f0, 9192($sp)                  # 8-byte Folded Spill
	ldc1	$f0, 6696($16)
	sdc1	$f0, 9184($sp)                  # 8-byte Folded Spill
	ldc1	$f0, 6704($16)
	sdc1	$f0, 9176($sp)                  # 8-byte Folded Spill
	ldc1	$f0, 6712($16)
	sdc1	$f0, 9168($sp)                  # 8-byte Folded Spill
	ldc1	$f0, 6720($16)
	sdc1	$f0, 9160($sp)                  # 8-byte Folded Spill
	ldc1	$f0, 6728($16)
	sdc1	$f0, 9152($sp)                  # 8-byte Folded Spill
	ldc1	$f0, 6736($16)
	sdc1	$f0, 9144($sp)                  # 8-byte Folded Spill
	ldc1	$f0, 6744($16)
	sdc1	$f0, 9136($sp)                  # 8-byte Folded Spill
	ldc1	$f0, 6752($16)
	sdc1	$f0, 9128($sp)                  # 8-byte Folded Spill
	ldc1	$f0, 6760($16)
	sdc1	$f0, 9120($sp)                  # 8-byte Folded Spill
	ldc1	$f0, 6768($16)
	sdc1	$f0, 9112($sp)                  # 8-byte Folded Spill
	ldc1	$f0, 6776($16)
	sdc1	$f0, 9104($sp)                  # 8-byte Folded Spill
	ldc1	$f0, 6784($16)
	sdc1	$f0, 9096($sp)                  # 8-byte Folded Spill
	ldc1	$f0, 6792($16)
	sdc1	$f0, 9088($sp)                  # 8-byte Folded Spill
	ldc1	$f0, 6800($16)
	sdc1	$f0, 9080($sp)                  # 8-byte Folded Spill
	ldc1	$f0, 6808($16)
	sdc1	$f0, 9072($sp)                  # 8-byte Folded Spill
	ldc1	$f0, 6816($16)
	sdc1	$f0, 9064($sp)                  # 8-byte Folded Spill
	ldc1	$f0, 6824($16)
	sdc1	$f0, 9056($sp)                  # 8-byte Folded Spill
	ldc1	$f0, 6832($16)
	sdc1	$f0, 9048($sp)                  # 8-byte Folded Spill
	ldc1	$f0, 6840($16)
	sdc1	$f0, 9040($sp)                  # 8-byte Folded Spill
	ldc1	$f0, 6848($16)
	sdc1	$f0, 9032($sp)                  # 8-byte Folded Spill
	ldc1	$f0, 6856($16)
	sdc1	$f0, 9024($sp)                  # 8-byte Folded Spill
	ldc1	$f0, 6864($16)
	sdc1	$f0, 9016($sp)                  # 8-byte Folded Spill
	ldc1	$f0, 6872($16)
	sdc1	$f0, 9008($sp)                  # 8-byte Folded Spill
	ldc1	$f0, 6880($16)
	sdc1	$f0, 9000($sp)                  # 8-byte Folded Spill
	ldc1	$f0, 6888($16)
	sdc1	$f0, 8992($sp)                  # 8-byte Folded Spill
	ldc1	$f0, 6896($16)
	sdc1	$f0, 8984($sp)                  # 8-byte Folded Spill
	ldc1	$f0, 6904($16)
	sdc1	$f0, 8976($sp)                  # 8-byte Folded Spill
	ldc1	$f0, 6912($16)
	sdc1	$f0, 8968($sp)                  # 8-byte Folded Spill
	ldc1	$f0, 6920($16)
	sdc1	$f0, 8960($sp)                  # 8-byte Folded Spill
	ldc1	$f0, 6928($16)
	sdc1	$f0, 8952($sp)                  # 8-byte Folded Spill
	ldc1	$f0, 6936($16)
	sdc1	$f0, 8944($sp)                  # 8-byte Folded Spill
	ldc1	$f0, 6944($16)
	sdc1	$f0, 8936($sp)                  # 8-byte Folded Spill
	ldc1	$f0, 6952($16)
	sdc1	$f0, 8928($sp)                  # 8-byte Folded Spill
	ldc1	$f0, 6960($16)
	sdc1	$f0, 8920($sp)                  # 8-byte Folded Spill
	ldc1	$f0, 6968($16)
	sdc1	$f0, 8912($sp)                  # 8-byte Folded Spill
	ldc1	$f0, 6976($16)
	sdc1	$f0, 8904($sp)                  # 8-byte Folded Spill
	ldc1	$f0, 6984($16)
	sdc1	$f0, 8896($sp)                  # 8-byte Folded Spill
	ldc1	$f0, 6992($16)
	sdc1	$f0, 8888($sp)                  # 8-byte Folded Spill
	ldc1	$f0, 7000($16)
	sdc1	$f0, 8880($sp)                  # 8-byte Folded Spill
	ldc1	$f0, 7008($16)
	sdc1	$f0, 8872($sp)                  # 8-byte Folded Spill
	ldc1	$f0, 7016($16)
	sdc1	$f0, 8864($sp)                  # 8-byte Folded Spill
	ldc1	$f0, 7024($16)
	sdc1	$f0, 8856($sp)                  # 8-byte Folded Spill
	ldc1	$f0, 7032($16)
	sdc1	$f0, 8848($sp)                  # 8-byte Folded Spill
	ldc1	$f0, 7040($16)
	sdc1	$f0, 8840($sp)                  # 8-byte Folded Spill
	ldc1	$f0, 7048($16)
	sdc1	$f0, 8832($sp)                  # 8-byte Folded Spill
	ldc1	$f0, 7056($16)
	sdc1	$f0, 8824($sp)                  # 8-byte Folded Spill
	ldc1	$f0, 7064($16)
	sdc1	$f0, 8816($sp)                  # 8-byte Folded Spill
	ldc1	$f0, 7072($16)
	sdc1	$f0, 8808($sp)                  # 8-byte Folded Spill
	ldc1	$f0, 7080($16)
	sdc1	$f0, 8800($sp)                  # 8-byte Folded Spill
	ldc1	$f0, 7088($16)
	sdc1	$f0, 8792($sp)                  # 8-byte Folded Spill
	ldc1	$f0, 7096($16)
	sdc1	$f0, 8784($sp)                  # 8-byte Folded Spill
	ldc1	$f0, 7104($16)
	sdc1	$f0, 8776($sp)                  # 8-byte Folded Spill
	ldc1	$f0, 7112($16)
	sdc1	$f0, 8768($sp)                  # 8-byte Folded Spill
	ldc1	$f0, 7120($16)
	sdc1	$f0, 8760($sp)                  # 8-byte Folded Spill
	ldc1	$f0, 7128($16)
	sdc1	$f0, 8752($sp)                  # 8-byte Folded Spill
	ldc1	$f0, 7136($16)
	sdc1	$f0, 8744($sp)                  # 8-byte Folded Spill
	ldc1	$f0, 7144($16)
	sdc1	$f0, 8736($sp)                  # 8-byte Folded Spill
	ldc1	$f0, 7152($16)
	sdc1	$f0, 8728($sp)                  # 8-byte Folded Spill
	ldc1	$f0, 7160($16)
	sdc1	$f0, 8720($sp)                  # 8-byte Folded Spill
	ldc1	$f0, 7168($16)
	sdc1	$f0, 8712($sp)                  # 8-byte Folded Spill
	ldc1	$f0, 7176($16)
	sdc1	$f0, 8704($sp)                  # 8-byte Folded Spill
	ldc1	$f0, 7184($16)
	sdc1	$f0, 8696($sp)                  # 8-byte Folded Spill
	ldc1	$f0, 7192($16)
	sdc1	$f0, 8688($sp)                  # 8-byte Folded Spill
	ldc1	$f0, 7200($16)
	sdc1	$f0, 8680($sp)                  # 8-byte Folded Spill
	ldc1	$f0, 7208($16)
	sdc1	$f0, 8672($sp)                  # 8-byte Folded Spill
	ldc1	$f0, 7216($16)
	sdc1	$f0, 8664($sp)                  # 8-byte Folded Spill
	ldc1	$f0, 7224($16)
	sdc1	$f0, 8656($sp)                  # 8-byte Folded Spill
	ldc1	$f0, 7232($16)
	sdc1	$f0, 8648($sp)                  # 8-byte Folded Spill
	ldc1	$f0, 7240($16)
	sdc1	$f0, 8640($sp)                  # 8-byte Folded Spill
	ldc1	$f0, 7248($16)
	sdc1	$f0, 8632($sp)                  # 8-byte Folded Spill
	ldc1	$f0, 7256($16)
	sdc1	$f0, 8624($sp)                  # 8-byte Folded Spill
	ldc1	$f0, 7264($16)
	sdc1	$f0, 8616($sp)                  # 8-byte Folded Spill
	ldc1	$f0, 7272($16)
	sdc1	$f0, 8608($sp)                  # 8-byte Folded Spill
	ldc1	$f0, 7280($16)
	sdc1	$f0, 8600($sp)                  # 8-byte Folded Spill
	ldc1	$f0, 7288($16)
	sdc1	$f0, 8592($sp)                  # 8-byte Folded Spill
	ldc1	$f0, 7296($16)
	sdc1	$f0, 8584($sp)                  # 8-byte Folded Spill
	ldc1	$f0, 7304($16)
	sdc1	$f0, 8576($sp)                  # 8-byte Folded Spill
	ldc1	$f0, 7312($16)
	sdc1	$f0, 8568($sp)                  # 8-byte Folded Spill
	ldc1	$f0, 7320($16)
	sdc1	$f0, 8560($sp)                  # 8-byte Folded Spill
	ldc1	$f0, 7328($16)
	sdc1	$f0, 8552($sp)                  # 8-byte Folded Spill
	ldc1	$f0, 7336($16)
	sdc1	$f0, 8544($sp)                  # 8-byte Folded Spill
	ldc1	$f0, 7344($16)
	sdc1	$f0, 8536($sp)                  # 8-byte Folded Spill
	ldc1	$f0, 7352($16)
	sdc1	$f0, 8528($sp)                  # 8-byte Folded Spill
	ldc1	$f0, 7360($16)
	sdc1	$f0, 8520($sp)                  # 8-byte Folded Spill
	ldc1	$f0, 7368($16)
	sdc1	$f0, 8512($sp)                  # 8-byte Folded Spill
	ldc1	$f0, 7376($16)
	sdc1	$f0, 8504($sp)                  # 8-byte Folded Spill
	ldc1	$f0, 7384($16)
	sdc1	$f0, 8496($sp)                  # 8-byte Folded Spill
	ldc1	$f0, 7392($16)
	sdc1	$f0, 8488($sp)                  # 8-byte Folded Spill
	ldc1	$f0, 7400($16)
	sdc1	$f0, 8480($sp)                  # 8-byte Folded Spill
	ldc1	$f0, 7408($16)
	sdc1	$f0, 8472($sp)                  # 8-byte Folded Spill
	ldc1	$f0, 7416($16)
	sdc1	$f0, 8464($sp)                  # 8-byte Folded Spill
	ldc1	$f0, 7424($16)
	sdc1	$f0, 8456($sp)                  # 8-byte Folded Spill
	ldc1	$f0, 7432($16)
	sdc1	$f0, 8448($sp)                  # 8-byte Folded Spill
	ldc1	$f0, 7440($16)
	sdc1	$f0, 8440($sp)                  # 8-byte Folded Spill
	ldc1	$f0, 7448($16)
	sdc1	$f0, 8432($sp)                  # 8-byte Folded Spill
	ldc1	$f0, 7456($16)
	sdc1	$f0, 8424($sp)                  # 8-byte Folded Spill
	ldc1	$f0, 7464($16)
	sdc1	$f0, 8416($sp)                  # 8-byte Folded Spill
	ldc1	$f0, 7472($16)
	sdc1	$f0, 8408($sp)                  # 8-byte Folded Spill
	ldc1	$f0, 7480($16)
	sdc1	$f0, 8400($sp)                  # 8-byte Folded Spill
	ldc1	$f0, 7488($16)
	sdc1	$f0, 8392($sp)                  # 8-byte Folded Spill
	ldc1	$f0, 7496($16)
	sdc1	$f0, 8384($sp)                  # 8-byte Folded Spill
	ldc1	$f0, 7504($16)
	sdc1	$f0, 8376($sp)                  # 8-byte Folded Spill
	ldc1	$f0, 7512($16)
	sdc1	$f0, 8368($sp)                  # 8-byte Folded Spill
	ldc1	$f0, 7520($16)
	sdc1	$f0, 8360($sp)                  # 8-byte Folded Spill
	ldc1	$f0, 7528($16)
	sdc1	$f0, 8352($sp)                  # 8-byte Folded Spill
	ldc1	$f0, 7536($16)
	sdc1	$f0, 8344($sp)                  # 8-byte Folded Spill
	ldc1	$f0, 7544($16)
	sdc1	$f0, 8336($sp)                  # 8-byte Folded Spill
	ldc1	$f0, 7552($16)
	sdc1	$f0, 8328($sp)                  # 8-byte Folded Spill
	ldc1	$f0, 7560($16)
	sdc1	$f0, 8320($sp)                  # 8-byte Folded Spill
	ldc1	$f0, 7568($16)
	sdc1	$f0, 8312($sp)                  # 8-byte Folded Spill
	ldc1	$f0, 7576($16)
	sdc1	$f0, 8304($sp)                  # 8-byte Folded Spill
	ldc1	$f0, 7584($16)
	sdc1	$f0, 8296($sp)                  # 8-byte Folded Spill
	ldc1	$f0, 7592($16)
	sdc1	$f0, 8288($sp)                  # 8-byte Folded Spill
	ldc1	$f0, 7600($16)
	sdc1	$f0, 8280($sp)                  # 8-byte Folded Spill
	ldc1	$f0, 7608($16)
	sdc1	$f0, 8272($sp)                  # 8-byte Folded Spill
	ldc1	$f0, 7616($16)
	sdc1	$f0, 8264($sp)                  # 8-byte Folded Spill
	ldc1	$f0, 7624($16)
	sdc1	$f0, 8256($sp)                  # 8-byte Folded Spill
	ldc1	$f0, 7632($16)
	sdc1	$f0, 8248($sp)                  # 8-byte Folded Spill
	ldc1	$f0, 7640($16)
	sdc1	$f0, 8240($sp)                  # 8-byte Folded Spill
	ldc1	$f0, 7648($16)
	sdc1	$f0, 8232($sp)                  # 8-byte Folded Spill
	ldc1	$f0, 7656($16)
	sdc1	$f0, 8224($sp)                  # 8-byte Folded Spill
	ldc1	$f0, 7664($16)
	sdc1	$f0, 8216($sp)                  # 8-byte Folded Spill
	ldc1	$f0, 7672($16)
	sdc1	$f0, 8208($sp)                  # 8-byte Folded Spill
	ldc1	$f0, 7680($16)
	sdc1	$f0, 8200($sp)                  # 8-byte Folded Spill
	ldc1	$f0, 7688($16)
	sdc1	$f0, 8192($sp)                  # 8-byte Folded Spill
	ldc1	$f0, 7696($16)
	sdc1	$f0, 8184($sp)                  # 8-byte Folded Spill
	ldc1	$f0, 7704($16)
	sdc1	$f0, 8176($sp)                  # 8-byte Folded Spill
	ldc1	$f0, 7712($16)
	sdc1	$f0, 8168($sp)                  # 8-byte Folded Spill
	ldc1	$f0, 7720($16)
	sdc1	$f0, 8160($sp)                  # 8-byte Folded Spill
	ldc1	$f0, 7728($16)
	sdc1	$f0, 8152($sp)                  # 8-byte Folded Spill
	ldc1	$f0, 7736($16)
	sdc1	$f0, 8144($sp)                  # 8-byte Folded Spill
	ldc1	$f0, 7744($16)
	sdc1	$f0, 8136($sp)                  # 8-byte Folded Spill
	ldc1	$f0, 7752($16)
	sdc1	$f0, 8128($sp)                  # 8-byte Folded Spill
	ldc1	$f0, 7760($16)
	sdc1	$f0, 8120($sp)                  # 8-byte Folded Spill
	ldc1	$f0, 7768($16)
	sdc1	$f0, 8112($sp)                  # 8-byte Folded Spill
	ldc1	$f0, 7776($16)
	sdc1	$f0, 8104($sp)                  # 8-byte Folded Spill
	ldc1	$f0, 7784($16)
	sdc1	$f0, 8096($sp)                  # 8-byte Folded Spill
	ldc1	$f0, 7792($16)
	sdc1	$f0, 8088($sp)                  # 8-byte Folded Spill
	ldc1	$f0, 7800($16)
	sdc1	$f0, 8080($sp)                  # 8-byte Folded Spill
	ldc1	$f0, 7808($16)
	sdc1	$f0, 8072($sp)                  # 8-byte Folded Spill
	ldc1	$f0, 7816($16)
	sdc1	$f0, 8064($sp)                  # 8-byte Folded Spill
	ldc1	$f0, 7824($16)
	sdc1	$f0, 8056($sp)                  # 8-byte Folded Spill
	ldc1	$f0, 7832($16)
	sdc1	$f0, 8048($sp)                  # 8-byte Folded Spill
	ldc1	$f0, 7840($16)
	sdc1	$f0, 8040($sp)                  # 8-byte Folded Spill
	ldc1	$f0, 7848($16)
	sdc1	$f0, 8032($sp)                  # 8-byte Folded Spill
	ldc1	$f0, 7856($16)
	sdc1	$f0, 8024($sp)                  # 8-byte Folded Spill
	ldc1	$f0, 7864($16)
	sdc1	$f0, 8016($sp)                  # 8-byte Folded Spill
	ldc1	$f0, 7872($16)
	sdc1	$f0, 8008($sp)                  # 8-byte Folded Spill
	ldc1	$f30, 7880($16)
	ldc1	$f28, 7888($16)
	ldc1	$f26, 7896($16)
	ldc1	$f24, 7904($16)
	ldc1	$f22, 7912($16)
	ldc1	$f20, 7920($16)
	ldc1	$f18, 7928($16)
	ldc1	$f16, 7936($16)
	ldc1	$f14, 7944($16)
	ldc1	$f12, 7952($16)
	ldc1	$f10, 7960($16)
	ldc1	$f8, 7968($16)
	ldc1	$f6, 7976($16)
	ldc1	$f4, 7984($16)
	ldc1	$f2, 7992($16)
	ldc1	$f0, 8000($16)
	sdc1	$f0, 7992($sp)
	sdc1	$f2, 7984($sp)
	sdc1	$f4, 7976($sp)
	sdc1	$f6, 7968($sp)
	sdc1	$f8, 7960($sp)
	sdc1	$f10, 7952($sp)
	sdc1	$f12, 7944($sp)
	sdc1	$f14, 7936($sp)
	sdc1	$f16, 7928($sp)
	sdc1	$f18, 7920($sp)
	sdc1	$f20, 7912($sp)
	sdc1	$f22, 7904($sp)
	sdc1	$f24, 7896($sp)
	sdc1	$f26, 7888($sp)
	sdc1	$f28, 7880($sp)
	sdc1	$f30, 7872($sp)
	ldc1	$f0, 8008($sp)                  # 8-byte Folded Reload
	sdc1	$f0, 7864($sp)
	ldc1	$f0, 8016($sp)                  # 8-byte Folded Reload
	sdc1	$f0, 7856($sp)
	ldc1	$f0, 8024($sp)                  # 8-byte Folded Reload
	sdc1	$f0, 7848($sp)
	ldc1	$f0, 8032($sp)                  # 8-byte Folded Reload
	sdc1	$f0, 7840($sp)
	ldc1	$f0, 8040($sp)                  # 8-byte Folded Reload
	sdc1	$f0, 7832($sp)
	ldc1	$f0, 8048($sp)                  # 8-byte Folded Reload
	sdc1	$f0, 7824($sp)
	ldc1	$f0, 8056($sp)                  # 8-byte Folded Reload
	sdc1	$f0, 7816($sp)
	ldc1	$f0, 8064($sp)                  # 8-byte Folded Reload
	sdc1	$f0, 7808($sp)
	ldc1	$f0, 8072($sp)                  # 8-byte Folded Reload
	sdc1	$f0, 7800($sp)
	ldc1	$f0, 8080($sp)                  # 8-byte Folded Reload
	sdc1	$f0, 7792($sp)
	ldc1	$f0, 8088($sp)                  # 8-byte Folded Reload
	sdc1	$f0, 7784($sp)
	ldc1	$f0, 8096($sp)                  # 8-byte Folded Reload
	sdc1	$f0, 7776($sp)
	ldc1	$f0, 8104($sp)                  # 8-byte Folded Reload
	sdc1	$f0, 7768($sp)
	ldc1	$f0, 8112($sp)                  # 8-byte Folded Reload
	sdc1	$f0, 7760($sp)
	ldc1	$f0, 8120($sp)                  # 8-byte Folded Reload
	sdc1	$f0, 7752($sp)
	ldc1	$f0, 8128($sp)                  # 8-byte Folded Reload
	sdc1	$f0, 7744($sp)
	ldc1	$f0, 8136($sp)                  # 8-byte Folded Reload
	sdc1	$f0, 7736($sp)
	ldc1	$f0, 8144($sp)                  # 8-byte Folded Reload
	sdc1	$f0, 7728($sp)
	ldc1	$f0, 8152($sp)                  # 8-byte Folded Reload
	sdc1	$f0, 7720($sp)
	ldc1	$f0, 8160($sp)                  # 8-byte Folded Reload
	sdc1	$f0, 7712($sp)
	ldc1	$f0, 8168($sp)                  # 8-byte Folded Reload
	sdc1	$f0, 7704($sp)
	ldc1	$f0, 8176($sp)                  # 8-byte Folded Reload
	sdc1	$f0, 7696($sp)
	ldc1	$f0, 8184($sp)                  # 8-byte Folded Reload
	sdc1	$f0, 7688($sp)
	ldc1	$f0, 8192($sp)                  # 8-byte Folded Reload
	sdc1	$f0, 7680($sp)
	ldc1	$f0, 8200($sp)                  # 8-byte Folded Reload
	sdc1	$f0, 7672($sp)
	ldc1	$f0, 8208($sp)                  # 8-byte Folded Reload
	sdc1	$f0, 7664($sp)
	ldc1	$f0, 8216($sp)                  # 8-byte Folded Reload
	sdc1	$f0, 7656($sp)
	ldc1	$f0, 8224($sp)                  # 8-byte Folded Reload
	sdc1	$f0, 7648($sp)
	ldc1	$f0, 8232($sp)                  # 8-byte Folded Reload
	sdc1	$f0, 7640($sp)
	ldc1	$f0, 8240($sp)                  # 8-byte Folded Reload
	sdc1	$f0, 7632($sp)
	ldc1	$f0, 8248($sp)                  # 8-byte Folded Reload
	sdc1	$f0, 7624($sp)
	ldc1	$f0, 8256($sp)                  # 8-byte Folded Reload
	sdc1	$f0, 7616($sp)
	ldc1	$f0, 8264($sp)                  # 8-byte Folded Reload
	sdc1	$f0, 7608($sp)
	ldc1	$f0, 8272($sp)                  # 8-byte Folded Reload
	sdc1	$f0, 7600($sp)
	ldc1	$f0, 8280($sp)                  # 8-byte Folded Reload
	sdc1	$f0, 7592($sp)
	ldc1	$f0, 8288($sp)                  # 8-byte Folded Reload
	sdc1	$f0, 7584($sp)
	ldc1	$f0, 8296($sp)                  # 8-byte Folded Reload
	sdc1	$f0, 7576($sp)
	ldc1	$f0, 8304($sp)                  # 8-byte Folded Reload
	sdc1	$f0, 7568($sp)
	ldc1	$f0, 8312($sp)                  # 8-byte Folded Reload
	sdc1	$f0, 7560($sp)
	ldc1	$f0, 8320($sp)                  # 8-byte Folded Reload
	sdc1	$f0, 7552($sp)
	ldc1	$f0, 8328($sp)                  # 8-byte Folded Reload
	sdc1	$f0, 7544($sp)
	ldc1	$f0, 8336($sp)                  # 8-byte Folded Reload
	sdc1	$f0, 7536($sp)
	ldc1	$f0, 8344($sp)                  # 8-byte Folded Reload
	sdc1	$f0, 7528($sp)
	ldc1	$f0, 8352($sp)                  # 8-byte Folded Reload
	sdc1	$f0, 7520($sp)
	ldc1	$f0, 8360($sp)                  # 8-byte Folded Reload
	sdc1	$f0, 7512($sp)
	ldc1	$f0, 8368($sp)                  # 8-byte Folded Reload
	sdc1	$f0, 7504($sp)
	ldc1	$f0, 8376($sp)                  # 8-byte Folded Reload
	sdc1	$f0, 7496($sp)
	ldc1	$f0, 8384($sp)                  # 8-byte Folded Reload
	sdc1	$f0, 7488($sp)
	ldc1	$f0, 8392($sp)                  # 8-byte Folded Reload
	sdc1	$f0, 7480($sp)
	ldc1	$f0, 8400($sp)                  # 8-byte Folded Reload
	sdc1	$f0, 7472($sp)
	ldc1	$f0, 8408($sp)                  # 8-byte Folded Reload
	sdc1	$f0, 7464($sp)
	ldc1	$f0, 8416($sp)                  # 8-byte Folded Reload
	sdc1	$f0, 7456($sp)
	ldc1	$f0, 8424($sp)                  # 8-byte Folded Reload
	sdc1	$f0, 7448($sp)
	ldc1	$f0, 8432($sp)                  # 8-byte Folded Reload
	sdc1	$f0, 7440($sp)
	ldc1	$f0, 8440($sp)                  # 8-byte Folded Reload
	sdc1	$f0, 7432($sp)
	ldc1	$f0, 8448($sp)                  # 8-byte Folded Reload
	sdc1	$f0, 7424($sp)
	ldc1	$f0, 8456($sp)                  # 8-byte Folded Reload
	sdc1	$f0, 7416($sp)
	ldc1	$f0, 8464($sp)                  # 8-byte Folded Reload
	sdc1	$f0, 7408($sp)
	ldc1	$f0, 8472($sp)                  # 8-byte Folded Reload
	sdc1	$f0, 7400($sp)
	ldc1	$f0, 8480($sp)                  # 8-byte Folded Reload
	sdc1	$f0, 7392($sp)
	ldc1	$f0, 8488($sp)                  # 8-byte Folded Reload
	sdc1	$f0, 7384($sp)
	ldc1	$f0, 8496($sp)                  # 8-byte Folded Reload
	sdc1	$f0, 7376($sp)
	ldc1	$f0, 8504($sp)                  # 8-byte Folded Reload
	sdc1	$f0, 7368($sp)
	ldc1	$f0, 8512($sp)                  # 8-byte Folded Reload
	sdc1	$f0, 7360($sp)
	ldc1	$f0, 8520($sp)                  # 8-byte Folded Reload
	sdc1	$f0, 7352($sp)
	ldc1	$f0, 8528($sp)                  # 8-byte Folded Reload
	sdc1	$f0, 7344($sp)
	ldc1	$f0, 8536($sp)                  # 8-byte Folded Reload
	sdc1	$f0, 7336($sp)
	ldc1	$f0, 8544($sp)                  # 8-byte Folded Reload
	sdc1	$f0, 7328($sp)
	ldc1	$f0, 8552($sp)                  # 8-byte Folded Reload
	sdc1	$f0, 7320($sp)
	ldc1	$f0, 8560($sp)                  # 8-byte Folded Reload
	sdc1	$f0, 7312($sp)
	ldc1	$f0, 8568($sp)                  # 8-byte Folded Reload
	sdc1	$f0, 7304($sp)
	ldc1	$f0, 8576($sp)                  # 8-byte Folded Reload
	sdc1	$f0, 7296($sp)
	ldc1	$f0, 8584($sp)                  # 8-byte Folded Reload
	sdc1	$f0, 7288($sp)
	ldc1	$f0, 8592($sp)                  # 8-byte Folded Reload
	sdc1	$f0, 7280($sp)
	ldc1	$f0, 8600($sp)                  # 8-byte Folded Reload
	sdc1	$f0, 7272($sp)
	ldc1	$f0, 8608($sp)                  # 8-byte Folded Reload
	sdc1	$f0, 7264($sp)
	ldc1	$f0, 8616($sp)                  # 8-byte Folded Reload
	sdc1	$f0, 7256($sp)
	ldc1	$f0, 8624($sp)                  # 8-byte Folded Reload
	sdc1	$f0, 7248($sp)
	ldc1	$f0, 8632($sp)                  # 8-byte Folded Reload
	sdc1	$f0, 7240($sp)
	ldc1	$f0, 8640($sp)                  # 8-byte Folded Reload
	sdc1	$f0, 7232($sp)
	ldc1	$f0, 8648($sp)                  # 8-byte Folded Reload
	sdc1	$f0, 7224($sp)
	ldc1	$f0, 8656($sp)                  # 8-byte Folded Reload
	sdc1	$f0, 7216($sp)
	ldc1	$f0, 8664($sp)                  # 8-byte Folded Reload
	sdc1	$f0, 7208($sp)
	ldc1	$f0, 8672($sp)                  # 8-byte Folded Reload
	sdc1	$f0, 7200($sp)
	ldc1	$f0, 8680($sp)                  # 8-byte Folded Reload
	sdc1	$f0, 7192($sp)
	ldc1	$f0, 8688($sp)                  # 8-byte Folded Reload
	sdc1	$f0, 7184($sp)
	ldc1	$f0, 8696($sp)                  # 8-byte Folded Reload
	sdc1	$f0, 7176($sp)
	ldc1	$f0, 8704($sp)                  # 8-byte Folded Reload
	sdc1	$f0, 7168($sp)
	ldc1	$f0, 8712($sp)                  # 8-byte Folded Reload
	sdc1	$f0, 7160($sp)
	ldc1	$f0, 8720($sp)                  # 8-byte Folded Reload
	sdc1	$f0, 7152($sp)
	ldc1	$f0, 8728($sp)                  # 8-byte Folded Reload
	sdc1	$f0, 7144($sp)
	ldc1	$f0, 8736($sp)                  # 8-byte Folded Reload
	sdc1	$f0, 7136($sp)
	ldc1	$f0, 8744($sp)                  # 8-byte Folded Reload
	sdc1	$f0, 7128($sp)
	ldc1	$f0, 8752($sp)                  # 8-byte Folded Reload
	sdc1	$f0, 7120($sp)
	ldc1	$f0, 8760($sp)                  # 8-byte Folded Reload
	sdc1	$f0, 7112($sp)
	ldc1	$f0, 8768($sp)                  # 8-byte Folded Reload
	sdc1	$f0, 7104($sp)
	ldc1	$f0, 8776($sp)                  # 8-byte Folded Reload
	sdc1	$f0, 7096($sp)
	ldc1	$f0, 8784($sp)                  # 8-byte Folded Reload
	sdc1	$f0, 7088($sp)
	ldc1	$f0, 8792($sp)                  # 8-byte Folded Reload
	sdc1	$f0, 7080($sp)
	ldc1	$f0, 8800($sp)                  # 8-byte Folded Reload
	sdc1	$f0, 7072($sp)
	ldc1	$f0, 8808($sp)                  # 8-byte Folded Reload
	sdc1	$f0, 7064($sp)
	ldc1	$f0, 8816($sp)                  # 8-byte Folded Reload
	sdc1	$f0, 7056($sp)
	ldc1	$f0, 8824($sp)                  # 8-byte Folded Reload
	sdc1	$f0, 7048($sp)
	ldc1	$f0, 8832($sp)                  # 8-byte Folded Reload
	sdc1	$f0, 7040($sp)
	ldc1	$f0, 8840($sp)                  # 8-byte Folded Reload
	sdc1	$f0, 7032($sp)
	ldc1	$f0, 8848($sp)                  # 8-byte Folded Reload
	sdc1	$f0, 7024($sp)
	ldc1	$f0, 8856($sp)                  # 8-byte Folded Reload
	sdc1	$f0, 7016($sp)
	ldc1	$f0, 8864($sp)                  # 8-byte Folded Reload
	sdc1	$f0, 7008($sp)
	ldc1	$f0, 8872($sp)                  # 8-byte Folded Reload
	sdc1	$f0, 7000($sp)
	ldc1	$f0, 8880($sp)                  # 8-byte Folded Reload
	sdc1	$f0, 6992($sp)
	ldc1	$f0, 8888($sp)                  # 8-byte Folded Reload
	sdc1	$f0, 6984($sp)
	ldc1	$f0, 8896($sp)                  # 8-byte Folded Reload
	sdc1	$f0, 6976($sp)
	ldc1	$f0, 8904($sp)                  # 8-byte Folded Reload
	sdc1	$f0, 6968($sp)
	ldc1	$f0, 8912($sp)                  # 8-byte Folded Reload
	sdc1	$f0, 6960($sp)
	ldc1	$f0, 8920($sp)                  # 8-byte Folded Reload
	sdc1	$f0, 6952($sp)
	ldc1	$f0, 8928($sp)                  # 8-byte Folded Reload
	sdc1	$f0, 6944($sp)
	ldc1	$f0, 8936($sp)                  # 8-byte Folded Reload
	sdc1	$f0, 6936($sp)
	ldc1	$f0, 8944($sp)                  # 8-byte Folded Reload
	sdc1	$f0, 6928($sp)
	ldc1	$f0, 8952($sp)                  # 8-byte Folded Reload
	sdc1	$f0, 6920($sp)
	ldc1	$f0, 8960($sp)                  # 8-byte Folded Reload
	sdc1	$f0, 6912($sp)
	ldc1	$f0, 8968($sp)                  # 8-byte Folded Reload
	sdc1	$f0, 6904($sp)
	ldc1	$f0, 8976($sp)                  # 8-byte Folded Reload
	sdc1	$f0, 6896($sp)
	ldc1	$f0, 8984($sp)                  # 8-byte Folded Reload
	sdc1	$f0, 6888($sp)
	ldc1	$f0, 8992($sp)                  # 8-byte Folded Reload
	sdc1	$f0, 6880($sp)
	ldc1	$f0, 9000($sp)                  # 8-byte Folded Reload
	sdc1	$f0, 6872($sp)
	ldc1	$f0, 9008($sp)                  # 8-byte Folded Reload
	sdc1	$f0, 6864($sp)
	ldc1	$f0, 9016($sp)                  # 8-byte Folded Reload
	sdc1	$f0, 6856($sp)
	ldc1	$f0, 9024($sp)                  # 8-byte Folded Reload
	sdc1	$f0, 6848($sp)
	ldc1	$f0, 9032($sp)                  # 8-byte Folded Reload
	sdc1	$f0, 6840($sp)
	ldc1	$f0, 9040($sp)                  # 8-byte Folded Reload
	sdc1	$f0, 6832($sp)
	ldc1	$f0, 9048($sp)                  # 8-byte Folded Reload
	sdc1	$f0, 6824($sp)
	ldc1	$f0, 9056($sp)                  # 8-byte Folded Reload
	sdc1	$f0, 6816($sp)
	ldc1	$f0, 9064($sp)                  # 8-byte Folded Reload
	sdc1	$f0, 6808($sp)
	ldc1	$f0, 9072($sp)                  # 8-byte Folded Reload
	sdc1	$f0, 6800($sp)
	ldc1	$f0, 9080($sp)                  # 8-byte Folded Reload
	sdc1	$f0, 6792($sp)
	ldc1	$f0, 9088($sp)                  # 8-byte Folded Reload
	sdc1	$f0, 6784($sp)
	ldc1	$f0, 9096($sp)                  # 8-byte Folded Reload
	sdc1	$f0, 6776($sp)
	ldc1	$f0, 9104($sp)                  # 8-byte Folded Reload
	sdc1	$f0, 6768($sp)
	ldc1	$f0, 9112($sp)                  # 8-byte Folded Reload
	sdc1	$f0, 6760($sp)
	ldc1	$f0, 9120($sp)                  # 8-byte Folded Reload
	sdc1	$f0, 6752($sp)
	ldc1	$f0, 9128($sp)                  # 8-byte Folded Reload
	sdc1	$f0, 6744($sp)
	ldc1	$f0, 9136($sp)                  # 8-byte Folded Reload
	sdc1	$f0, 6736($sp)
	ldc1	$f0, 9144($sp)                  # 8-byte Folded Reload
	sdc1	$f0, 6728($sp)
	ldc1	$f0, 9152($sp)                  # 8-byte Folded Reload
	sdc1	$f0, 6720($sp)
	ldc1	$f0, 9160($sp)                  # 8-byte Folded Reload
	sdc1	$f0, 6712($sp)
	ldc1	$f0, 9168($sp)                  # 8-byte Folded Reload
	sdc1	$f0, 6704($sp)
	ldc1	$f0, 9176($sp)                  # 8-byte Folded Reload
	sdc1	$f0, 6696($sp)
	ldc1	$f0, 9184($sp)                  # 8-byte Folded Reload
	sdc1	$f0, 6688($sp)
	ldc1	$f0, 9192($sp)                  # 8-byte Folded Reload
	sdc1	$f0, 6680($sp)
	ldc1	$f0, 9200($sp)                  # 8-byte Folded Reload
	sdc1	$f0, 6672($sp)
	ldc1	$f0, 9208($sp)                  # 8-byte Folded Reload
	sdc1	$f0, 6664($sp)
	ldc1	$f0, 9216($sp)                  # 8-byte Folded Reload
	sdc1	$f0, 6656($sp)
	ldc1	$f0, 9224($sp)                  # 8-byte Folded Reload
	sdc1	$f0, 6648($sp)
	ldc1	$f0, 9232($sp)                  # 8-byte Folded Reload
	sdc1	$f0, 6640($sp)
	ldc1	$f0, 9240($sp)                  # 8-byte Folded Reload
	sdc1	$f0, 6632($sp)
	ldc1	$f0, 9248($sp)                  # 8-byte Folded Reload
	sdc1	$f0, 6624($sp)
	ldc1	$f0, 9256($sp)                  # 8-byte Folded Reload
	sdc1	$f0, 6616($sp)
	ldc1	$f0, 9264($sp)                  # 8-byte Folded Reload
	sdc1	$f0, 6608($sp)
	ldc1	$f0, 9272($sp)                  # 8-byte Folded Reload
	sdc1	$f0, 6600($sp)
	ldc1	$f0, 9280($sp)                  # 8-byte Folded Reload
	sdc1	$f0, 6592($sp)
	ldc1	$f0, 9288($sp)                  # 8-byte Folded Reload
	sdc1	$f0, 6584($sp)
	ldc1	$f0, 9296($sp)                  # 8-byte Folded Reload
	sdc1	$f0, 6576($sp)
	ldc1	$f0, 9304($sp)                  # 8-byte Folded Reload
	sdc1	$f0, 6568($sp)
	ldc1	$f0, 9312($sp)                  # 8-byte Folded Reload
	sdc1	$f0, 6560($sp)
	ldc1	$f0, 9320($sp)                  # 8-byte Folded Reload
	sdc1	$f0, 6552($sp)
	ldc1	$f0, 9328($sp)                  # 8-byte Folded Reload
	sdc1	$f0, 6544($sp)
	ldc1	$f0, 9336($sp)                  # 8-byte Folded Reload
	sdc1	$f0, 6536($sp)
	ldc1	$f0, 9344($sp)                  # 8-byte Folded Reload
	sdc1	$f0, 6528($sp)
	ldc1	$f0, 9352($sp)                  # 8-byte Folded Reload
	sdc1	$f0, 6520($sp)
	ldc1	$f0, 9360($sp)                  # 8-byte Folded Reload
	sdc1	$f0, 6512($sp)
	ldc1	$f0, 9368($sp)                  # 8-byte Folded Reload
	sdc1	$f0, 6504($sp)
	ldc1	$f0, 9376($sp)                  # 8-byte Folded Reload
	sdc1	$f0, 6496($sp)
	ldc1	$f0, 9384($sp)                  # 8-byte Folded Reload
	sdc1	$f0, 6488($sp)
	ldc1	$f0, 9392($sp)                  # 8-byte Folded Reload
	sdc1	$f0, 6480($sp)
	ldc1	$f0, 9400($sp)                  # 8-byte Folded Reload
	sdc1	$f0, 6472($sp)
	ldc1	$f0, 9408($sp)                  # 8-byte Folded Reload
	sdc1	$f0, 6464($sp)
	ldc1	$f0, 9416($sp)                  # 8-byte Folded Reload
	sdc1	$f0, 6456($sp)
	ldc1	$f0, 9424($sp)                  # 8-byte Folded Reload
	sdc1	$f0, 6448($sp)
	ldc1	$f0, 9432($sp)                  # 8-byte Folded Reload
	sdc1	$f0, 6440($sp)
	ldc1	$f0, 9440($sp)                  # 8-byte Folded Reload
	sdc1	$f0, 6432($sp)
	ldc1	$f0, 9448($sp)                  # 8-byte Folded Reload
	sdc1	$f0, 6424($sp)
	ldc1	$f0, 9456($sp)                  # 8-byte Folded Reload
	sdc1	$f0, 6416($sp)
	ldc1	$f0, 9464($sp)                  # 8-byte Folded Reload
	sdc1	$f0, 6408($sp)
	ldc1	$f0, 9472($sp)                  # 8-byte Folded Reload
	sdc1	$f0, 6400($sp)
	ldc1	$f0, 9480($sp)                  # 8-byte Folded Reload
	sdc1	$f0, 6392($sp)
	ldc1	$f0, 9488($sp)                  # 8-byte Folded Reload
	sdc1	$f0, 6384($sp)
	ldc1	$f0, 9496($sp)                  # 8-byte Folded Reload
	sdc1	$f0, 6376($sp)
	ldc1	$f0, 9504($sp)                  # 8-byte Folded Reload
	sdc1	$f0, 6368($sp)
	ldc1	$f0, 9512($sp)                  # 8-byte Folded Reload
	sdc1	$f0, 6360($sp)
	ldc1	$f0, 9520($sp)                  # 8-byte Folded Reload
	sdc1	$f0, 6352($sp)
	ldc1	$f0, 9528($sp)                  # 8-byte Folded Reload
	sdc1	$f0, 6344($sp)
	ldc1	$f0, 9536($sp)                  # 8-byte Folded Reload
	sdc1	$f0, 6336($sp)
	ldc1	$f0, 9544($sp)                  # 8-byte Folded Reload
	sdc1	$f0, 6328($sp)
	ldc1	$f0, 9552($sp)                  # 8-byte Folded Reload
	sdc1	$f0, 6320($sp)
	ldc1	$f0, 9560($sp)                  # 8-byte Folded Reload
	sdc1	$f0, 6312($sp)
	ldc1	$f0, 9568($sp)                  # 8-byte Folded Reload
	sdc1	$f0, 6304($sp)
	ldc1	$f0, 9576($sp)                  # 8-byte Folded Reload
	sdc1	$f0, 6296($sp)
	ldc1	$f0, 9584($sp)                  # 8-byte Folded Reload
	sdc1	$f0, 6288($sp)
	ldc1	$f0, 9592($sp)                  # 8-byte Folded Reload
	sdc1	$f0, 6280($sp)
	ldc1	$f0, 9600($sp)                  # 8-byte Folded Reload
	sdc1	$f0, 6272($sp)
	ldc1	$f0, 9608($sp)                  # 8-byte Folded Reload
	sdc1	$f0, 6264($sp)
	ldc1	$f0, 9616($sp)                  # 8-byte Folded Reload
	sdc1	$f0, 6256($sp)
	ldc1	$f0, 9624($sp)                  # 8-byte Folded Reload
	sdc1	$f0, 6248($sp)
	ldc1	$f0, 9632($sp)                  # 8-byte Folded Reload
	sdc1	$f0, 6240($sp)
	ldc1	$f0, 9640($sp)                  # 8-byte Folded Reload
	sdc1	$f0, 6232($sp)
	ldc1	$f0, 9648($sp)                  # 8-byte Folded Reload
	sdc1	$f0, 6224($sp)
	ldc1	$f0, 9656($sp)                  # 8-byte Folded Reload
	sdc1	$f0, 6216($sp)
	ldc1	$f0, 9664($sp)                  # 8-byte Folded Reload
	sdc1	$f0, 6208($sp)
	ldc1	$f0, 9672($sp)                  # 8-byte Folded Reload
	sdc1	$f0, 6200($sp)
	ldc1	$f0, 9680($sp)                  # 8-byte Folded Reload
	sdc1	$f0, 6192($sp)
	ldc1	$f0, 9688($sp)                  # 8-byte Folded Reload
	sdc1	$f0, 6184($sp)
	ldc1	$f0, 9696($sp)                  # 8-byte Folded Reload
	sdc1	$f0, 6176($sp)
	ldc1	$f0, 9704($sp)                  # 8-byte Folded Reload
	sdc1	$f0, 6168($sp)
	ldc1	$f0, 9712($sp)                  # 8-byte Folded Reload
	sdc1	$f0, 6160($sp)
	ldc1	$f0, 9720($sp)                  # 8-byte Folded Reload
	sdc1	$f0, 6152($sp)
	ldc1	$f0, 9728($sp)                  # 8-byte Folded Reload
	sdc1	$f0, 6144($sp)
	ldc1	$f0, 9736($sp)                  # 8-byte Folded Reload
	sdc1	$f0, 6136($sp)
	ldc1	$f0, 9744($sp)                  # 8-byte Folded Reload
	sdc1	$f0, 6128($sp)
	ldc1	$f0, 9752($sp)                  # 8-byte Folded Reload
	sdc1	$f0, 6120($sp)
	ldc1	$f0, 9760($sp)                  # 8-byte Folded Reload
	sdc1	$f0, 6112($sp)
	ldc1	$f0, 9768($sp)                  # 8-byte Folded Reload
	sdc1	$f0, 6104($sp)
	ldc1	$f0, 9776($sp)                  # 8-byte Folded Reload
	sdc1	$f0, 6096($sp)
	ldc1	$f0, 9784($sp)                  # 8-byte Folded Reload
	sdc1	$f0, 6088($sp)
	ldc1	$f0, 9792($sp)                  # 8-byte Folded Reload
	sdc1	$f0, 6080($sp)
	ldc1	$f0, 9800($sp)                  # 8-byte Folded Reload
	sdc1	$f0, 6072($sp)
	ldc1	$f0, 9808($sp)                  # 8-byte Folded Reload
	sdc1	$f0, 6064($sp)
	ldc1	$f0, 9816($sp)                  # 8-byte Folded Reload
	sdc1	$f0, 6056($sp)
	ldc1	$f0, 9824($sp)                  # 8-byte Folded Reload
	sdc1	$f0, 6048($sp)
	ldc1	$f0, 9832($sp)                  # 8-byte Folded Reload
	sdc1	$f0, 6040($sp)
	ldc1	$f0, 9840($sp)                  # 8-byte Folded Reload
	sdc1	$f0, 6032($sp)
	ldc1	$f0, 9848($sp)                  # 8-byte Folded Reload
	sdc1	$f0, 6024($sp)
	ldc1	$f0, 9856($sp)                  # 8-byte Folded Reload
	sdc1	$f0, 6016($sp)
	ldc1	$f0, 9864($sp)                  # 8-byte Folded Reload
	sdc1	$f0, 6008($sp)
	ldc1	$f0, 9872($sp)                  # 8-byte Folded Reload
	sdc1	$f0, 6000($sp)
	ldc1	$f0, 9880($sp)                  # 8-byte Folded Reload
	sdc1	$f0, 5992($sp)
	ldc1	$f0, 9888($sp)                  # 8-byte Folded Reload
	sdc1	$f0, 5984($sp)
	ldc1	$f0, 9896($sp)                  # 8-byte Folded Reload
	sdc1	$f0, 5976($sp)
	ldc1	$f0, 9904($sp)                  # 8-byte Folded Reload
	sdc1	$f0, 5968($sp)
	ldc1	$f0, 9912($sp)                  # 8-byte Folded Reload
	sdc1	$f0, 5960($sp)
	ldc1	$f0, 9920($sp)                  # 8-byte Folded Reload
	sdc1	$f0, 5952($sp)
	ldc1	$f0, 9928($sp)                  # 8-byte Folded Reload
	sdc1	$f0, 5944($sp)
	ldc1	$f0, 9936($sp)                  # 8-byte Folded Reload
	sdc1	$f0, 5936($sp)
	ldc1	$f0, 9944($sp)                  # 8-byte Folded Reload
	sdc1	$f0, 5928($sp)
	ldc1	$f0, 9952($sp)                  # 8-byte Folded Reload
	sdc1	$f0, 5920($sp)
	ldc1	$f0, 9960($sp)                  # 8-byte Folded Reload
	sdc1	$f0, 5912($sp)
	ldc1	$f0, 9968($sp)                  # 8-byte Folded Reload
	sdc1	$f0, 5904($sp)
	ldc1	$f0, 9976($sp)                  # 8-byte Folded Reload
	sdc1	$f0, 5896($sp)
	ldc1	$f0, 9984($sp)                  # 8-byte Folded Reload
	sdc1	$f0, 5888($sp)
	ldc1	$f0, 9992($sp)                  # 8-byte Folded Reload
	sdc1	$f0, 5880($sp)
	ldc1	$f0, 10000($sp)                 # 8-byte Folded Reload
	sdc1	$f0, 5872($sp)
	ldc1	$f0, 10008($sp)                 # 8-byte Folded Reload
	sdc1	$f0, 5864($sp)
	ldc1	$f0, 10016($sp)                 # 8-byte Folded Reload
	sdc1	$f0, 5856($sp)
	ldc1	$f0, 10024($sp)                 # 8-byte Folded Reload
	sdc1	$f0, 5848($sp)
	ldc1	$f0, 10032($sp)                 # 8-byte Folded Reload
	sdc1	$f0, 5840($sp)
	ldc1	$f0, 10040($sp)                 # 8-byte Folded Reload
	sdc1	$f0, 5832($sp)
	ldc1	$f0, 10048($sp)                 # 8-byte Folded Reload
	sdc1	$f0, 5824($sp)
	ldc1	$f0, 10056($sp)                 # 8-byte Folded Reload
	sdc1	$f0, 5816($sp)
	ldc1	$f0, 10064($sp)                 # 8-byte Folded Reload
	sdc1	$f0, 5808($sp)
	ldc1	$f0, 10072($sp)                 # 8-byte Folded Reload
	sdc1	$f0, 5800($sp)
	ldc1	$f0, 10080($sp)                 # 8-byte Folded Reload
	sdc1	$f0, 5792($sp)
	ldc1	$f0, 10088($sp)                 # 8-byte Folded Reload
	sdc1	$f0, 5784($sp)
	ldc1	$f0, 10096($sp)                 # 8-byte Folded Reload
	sdc1	$f0, 5776($sp)
	ldc1	$f0, 10104($sp)                 # 8-byte Folded Reload
	sdc1	$f0, 5768($sp)
	ldc1	$f0, 10112($sp)                 # 8-byte Folded Reload
	sdc1	$f0, 5760($sp)
	ldc1	$f0, 10120($sp)                 # 8-byte Folded Reload
	sdc1	$f0, 5752($sp)
	ldc1	$f0, 10128($sp)                 # 8-byte Folded Reload
	sdc1	$f0, 5744($sp)
	ldc1	$f0, 10136($sp)                 # 8-byte Folded Reload
	sdc1	$f0, 5736($sp)
	ldc1	$f0, 10144($sp)                 # 8-byte Folded Reload
	sdc1	$f0, 5728($sp)
	ldc1	$f0, 10152($sp)                 # 8-byte Folded Reload
	sdc1	$f0, 5720($sp)
	ldc1	$f0, 10160($sp)                 # 8-byte Folded Reload
	sdc1	$f0, 5712($sp)
	ldc1	$f0, 10168($sp)                 # 8-byte Folded Reload
	sdc1	$f0, 5704($sp)
	ldc1	$f0, 10176($sp)                 # 8-byte Folded Reload
	sdc1	$f0, 5696($sp)
	ldc1	$f0, 10184($sp)                 # 8-byte Folded Reload
	sdc1	$f0, 5688($sp)
	ldc1	$f0, 10192($sp)                 # 8-byte Folded Reload
	sdc1	$f0, 5680($sp)
	ldc1	$f0, 10200($sp)                 # 8-byte Folded Reload
	sdc1	$f0, 5672($sp)
	ldc1	$f0, 10208($sp)                 # 8-byte Folded Reload
	sdc1	$f0, 5664($sp)
	ldc1	$f0, 10216($sp)                 # 8-byte Folded Reload
	sdc1	$f0, 5656($sp)
	ldc1	$f0, 10224($sp)                 # 8-byte Folded Reload
	sdc1	$f0, 5648($sp)
	ldc1	$f0, 10232($sp)                 # 8-byte Folded Reload
	sdc1	$f0, 5640($sp)
	ldc1	$f0, 10240($sp)                 # 8-byte Folded Reload
	sdc1	$f0, 5632($sp)
	ldc1	$f0, 10248($sp)                 # 8-byte Folded Reload
	sdc1	$f0, 5624($sp)
	ldc1	$f0, 10256($sp)                 # 8-byte Folded Reload
	sdc1	$f0, 5616($sp)
	ldc1	$f0, 10264($sp)                 # 8-byte Folded Reload
	sdc1	$f0, 5608($sp)
	ldc1	$f0, 10272($sp)                 # 8-byte Folded Reload
	sdc1	$f0, 5600($sp)
	ldc1	$f0, 10280($sp)                 # 8-byte Folded Reload
	sdc1	$f0, 5592($sp)
	ldc1	$f0, 10288($sp)                 # 8-byte Folded Reload
	sdc1	$f0, 5584($sp)
	ldc1	$f0, 10296($sp)                 # 8-byte Folded Reload
	sdc1	$f0, 5576($sp)
	ldc1	$f0, 10304($sp)                 # 8-byte Folded Reload
	sdc1	$f0, 5568($sp)
	ldc1	$f0, 10312($sp)                 # 8-byte Folded Reload
	sdc1	$f0, 5560($sp)
	ldc1	$f0, 10320($sp)                 # 8-byte Folded Reload
	sdc1	$f0, 5552($sp)
	ldc1	$f0, 10328($sp)                 # 8-byte Folded Reload
	sdc1	$f0, 5544($sp)
	ldc1	$f0, 10336($sp)                 # 8-byte Folded Reload
	sdc1	$f0, 5536($sp)
	ldc1	$f0, 10344($sp)                 # 8-byte Folded Reload
	sdc1	$f0, 5528($sp)
	ldc1	$f0, 10352($sp)                 # 8-byte Folded Reload
	sdc1	$f0, 5520($sp)
	ldc1	$f0, 10360($sp)                 # 8-byte Folded Reload
	sdc1	$f0, 5512($sp)
	ldc1	$f0, 10368($sp)                 # 8-byte Folded Reload
	sdc1	$f0, 5504($sp)
	ldc1	$f0, 10376($sp)                 # 8-byte Folded Reload
	sdc1	$f0, 5496($sp)
	ldc1	$f0, 10384($sp)                 # 8-byte Folded Reload
	sdc1	$f0, 5488($sp)
	ldc1	$f0, 10392($sp)                 # 8-byte Folded Reload
	sdc1	$f0, 5480($sp)
	ldc1	$f0, 10400($sp)                 # 8-byte Folded Reload
	sdc1	$f0, 5472($sp)
	ldc1	$f0, 10408($sp)                 # 8-byte Folded Reload
	sdc1	$f0, 5464($sp)
	ldc1	$f0, 10416($sp)                 # 8-byte Folded Reload
	sdc1	$f0, 5456($sp)
	ldc1	$f0, 10424($sp)                 # 8-byte Folded Reload
	sdc1	$f0, 5448($sp)
	ldc1	$f0, 10432($sp)                 # 8-byte Folded Reload
	sdc1	$f0, 5440($sp)
	ldc1	$f0, 10440($sp)                 # 8-byte Folded Reload
	sdc1	$f0, 5432($sp)
	ldc1	$f0, 10448($sp)                 # 8-byte Folded Reload
	sdc1	$f0, 5424($sp)
	ldc1	$f0, 10456($sp)                 # 8-byte Folded Reload
	sdc1	$f0, 5416($sp)
	ldc1	$f0, 10464($sp)                 # 8-byte Folded Reload
	sdc1	$f0, 5408($sp)
	ldc1	$f0, 10472($sp)                 # 8-byte Folded Reload
	sdc1	$f0, 5400($sp)
	ldc1	$f0, 10480($sp)                 # 8-byte Folded Reload
	sdc1	$f0, 5392($sp)
	ldc1	$f0, 10488($sp)                 # 8-byte Folded Reload
	sdc1	$f0, 5384($sp)
	ldc1	$f0, 10496($sp)                 # 8-byte Folded Reload
	sdc1	$f0, 5376($sp)
	ldc1	$f0, 10504($sp)                 # 8-byte Folded Reload
	sdc1	$f0, 5368($sp)
	ldc1	$f0, 10512($sp)                 # 8-byte Folded Reload
	sdc1	$f0, 5360($sp)
	ldc1	$f0, 10520($sp)                 # 8-byte Folded Reload
	sdc1	$f0, 5352($sp)
	ldc1	$f0, 10528($sp)                 # 8-byte Folded Reload
	sdc1	$f0, 5344($sp)
	ldc1	$f0, 10536($sp)                 # 8-byte Folded Reload
	sdc1	$f0, 5336($sp)
	ldc1	$f0, 10544($sp)                 # 8-byte Folded Reload
	sdc1	$f0, 5328($sp)
	ldc1	$f0, 10552($sp)                 # 8-byte Folded Reload
	sdc1	$f0, 5320($sp)
	ldc1	$f0, 10560($sp)                 # 8-byte Folded Reload
	sdc1	$f0, 5312($sp)
	ldc1	$f0, 10568($sp)                 # 8-byte Folded Reload
	sdc1	$f0, 5304($sp)
	ldc1	$f0, 10576($sp)                 # 8-byte Folded Reload
	sdc1	$f0, 5296($sp)
	ldc1	$f0, 10584($sp)                 # 8-byte Folded Reload
	sdc1	$f0, 5288($sp)
	ldc1	$f0, 10592($sp)                 # 8-byte Folded Reload
	sdc1	$f0, 5280($sp)
	ldc1	$f0, 10600($sp)                 # 8-byte Folded Reload
	sdc1	$f0, 5272($sp)
	ldc1	$f0, 10608($sp)                 # 8-byte Folded Reload
	sdc1	$f0, 5264($sp)
	ldc1	$f0, 10616($sp)                 # 8-byte Folded Reload
	sdc1	$f0, 5256($sp)
	ldc1	$f0, 10624($sp)                 # 8-byte Folded Reload
	sdc1	$f0, 5248($sp)
	ldc1	$f0, 10632($sp)                 # 8-byte Folded Reload
	sdc1	$f0, 5240($sp)
	ldc1	$f0, 10640($sp)                 # 8-byte Folded Reload
	sdc1	$f0, 5232($sp)
	ldc1	$f0, 10648($sp)                 # 8-byte Folded Reload
	sdc1	$f0, 5224($sp)
	ldc1	$f0, 10656($sp)                 # 8-byte Folded Reload
	sdc1	$f0, 5216($sp)
	ldc1	$f0, 10664($sp)                 # 8-byte Folded Reload
	sdc1	$f0, 5208($sp)
	ldc1	$f0, 10672($sp)                 # 8-byte Folded Reload
	sdc1	$f0, 5200($sp)
	ldc1	$f0, 10680($sp)                 # 8-byte Folded Reload
	sdc1	$f0, 5192($sp)
	ldc1	$f0, 10688($sp)                 # 8-byte Folded Reload
	sdc1	$f0, 5184($sp)
	ldc1	$f0, 10696($sp)                 # 8-byte Folded Reload
	sdc1	$f0, 5176($sp)
	ldc1	$f0, 10704($sp)                 # 8-byte Folded Reload
	sdc1	$f0, 5168($sp)
	ldc1	$f0, 10712($sp)                 # 8-byte Folded Reload
	sdc1	$f0, 5160($sp)
	ldc1	$f0, 10720($sp)                 # 8-byte Folded Reload
	sdc1	$f0, 5152($sp)
	ldc1	$f0, 10728($sp)                 # 8-byte Folded Reload
	sdc1	$f0, 5144($sp)
	ldc1	$f0, 10736($sp)                 # 8-byte Folded Reload
	sdc1	$f0, 5136($sp)
	ldc1	$f0, 10744($sp)                 # 8-byte Folded Reload
	sdc1	$f0, 5128($sp)
	ldc1	$f0, 10752($sp)                 # 8-byte Folded Reload
	sdc1	$f0, 5120($sp)
	ldc1	$f0, 10760($sp)                 # 8-byte Folded Reload
	sdc1	$f0, 5112($sp)
	ldc1	$f0, 10768($sp)                 # 8-byte Folded Reload
	sdc1	$f0, 5104($sp)
	ldc1	$f0, 10776($sp)                 # 8-byte Folded Reload
	sdc1	$f0, 5096($sp)
	ldc1	$f0, 10784($sp)                 # 8-byte Folded Reload
	sdc1	$f0, 5088($sp)
	ldc1	$f0, 10792($sp)                 # 8-byte Folded Reload
	sdc1	$f0, 5080($sp)
	ldc1	$f0, 10800($sp)                 # 8-byte Folded Reload
	sdc1	$f0, 5072($sp)
	ldc1	$f0, 10808($sp)                 # 8-byte Folded Reload
	sdc1	$f0, 5064($sp)
	ldc1	$f0, 10816($sp)                 # 8-byte Folded Reload
	sdc1	$f0, 5056($sp)
	ldc1	$f0, 10824($sp)                 # 8-byte Folded Reload
	sdc1	$f0, 5048($sp)
	ldc1	$f0, 10832($sp)                 # 8-byte Folded Reload
	sdc1	$f0, 5040($sp)
	ldc1	$f0, 10840($sp)                 # 8-byte Folded Reload
	sdc1	$f0, 5032($sp)
	ldc1	$f0, 10848($sp)                 # 8-byte Folded Reload
	sdc1	$f0, 5024($sp)
	ldc1	$f0, 10856($sp)                 # 8-byte Folded Reload
	sdc1	$f0, 5016($sp)
	ldc1	$f0, 10864($sp)                 # 8-byte Folded Reload
	sdc1	$f0, 5008($sp)
	ldc1	$f0, 10872($sp)                 # 8-byte Folded Reload
	sdc1	$f0, 5000($sp)
	ldc1	$f0, 10880($sp)                 # 8-byte Folded Reload
	sdc1	$f0, 4992($sp)
	ldc1	$f0, 10888($sp)                 # 8-byte Folded Reload
	sdc1	$f0, 4984($sp)
	ldc1	$f0, 10896($sp)                 # 8-byte Folded Reload
	sdc1	$f0, 4976($sp)
	ldc1	$f0, 10904($sp)                 # 8-byte Folded Reload
	sdc1	$f0, 4968($sp)
	ldc1	$f0, 10912($sp)                 # 8-byte Folded Reload
	sdc1	$f0, 4960($sp)
	ldc1	$f0, 10920($sp)                 # 8-byte Folded Reload
	sdc1	$f0, 4952($sp)
	ldc1	$f0, 10928($sp)                 # 8-byte Folded Reload
	sdc1	$f0, 4944($sp)
	ldc1	$f0, 10936($sp)                 # 8-byte Folded Reload
	sdc1	$f0, 4936($sp)
	ldc1	$f0, 10944($sp)                 # 8-byte Folded Reload
	sdc1	$f0, 4928($sp)
	ldc1	$f0, 10952($sp)                 # 8-byte Folded Reload
	sdc1	$f0, 4920($sp)
	ldc1	$f0, 10960($sp)                 # 8-byte Folded Reload
	sdc1	$f0, 4912($sp)
	ldc1	$f0, 10968($sp)                 # 8-byte Folded Reload
	sdc1	$f0, 4904($sp)
	ldc1	$f0, 10976($sp)                 # 8-byte Folded Reload
	sdc1	$f0, 4896($sp)
	ldc1	$f0, 10984($sp)                 # 8-byte Folded Reload
	sdc1	$f0, 4888($sp)
	ldc1	$f0, 10992($sp)                 # 8-byte Folded Reload
	sdc1	$f0, 4880($sp)
	ldc1	$f0, 11000($sp)                 # 8-byte Folded Reload
	sdc1	$f0, 4872($sp)
	ldc1	$f0, 11008($sp)                 # 8-byte Folded Reload
	sdc1	$f0, 4864($sp)
	ldc1	$f0, 11016($sp)                 # 8-byte Folded Reload
	sdc1	$f0, 4856($sp)
	ldc1	$f0, 11024($sp)                 # 8-byte Folded Reload
	sdc1	$f0, 4848($sp)
	ldc1	$f0, 11032($sp)                 # 8-byte Folded Reload
	sdc1	$f0, 4840($sp)
	ldc1	$f0, 11040($sp)                 # 8-byte Folded Reload
	sdc1	$f0, 4832($sp)
	ldc1	$f0, 11048($sp)                 # 8-byte Folded Reload
	sdc1	$f0, 4824($sp)
	ldc1	$f0, 11056($sp)                 # 8-byte Folded Reload
	sdc1	$f0, 4816($sp)
	ldc1	$f0, 11064($sp)                 # 8-byte Folded Reload
	sdc1	$f0, 4808($sp)
	ldc1	$f0, 11072($sp)                 # 8-byte Folded Reload
	sdc1	$f0, 4800($sp)
	ldc1	$f0, 11080($sp)                 # 8-byte Folded Reload
	sdc1	$f0, 4792($sp)
	ldc1	$f0, 11088($sp)                 # 8-byte Folded Reload
	sdc1	$f0, 4784($sp)
	ldc1	$f0, 11096($sp)                 # 8-byte Folded Reload
	sdc1	$f0, 4776($sp)
	ldc1	$f0, 11104($sp)                 # 8-byte Folded Reload
	sdc1	$f0, 4768($sp)
	ldc1	$f0, 11112($sp)                 # 8-byte Folded Reload
	sdc1	$f0, 4760($sp)
	ldc1	$f0, 11120($sp)                 # 8-byte Folded Reload
	sdc1	$f0, 4752($sp)
	ldc1	$f0, 11128($sp)                 # 8-byte Folded Reload
	sdc1	$f0, 4744($sp)
	ldc1	$f0, 11136($sp)                 # 8-byte Folded Reload
	sdc1	$f0, 4736($sp)
	ldc1	$f0, 11144($sp)                 # 8-byte Folded Reload
	sdc1	$f0, 4728($sp)
	ldc1	$f0, 11152($sp)                 # 8-byte Folded Reload
	sdc1	$f0, 4720($sp)
	ldc1	$f0, 11160($sp)                 # 8-byte Folded Reload
	sdc1	$f0, 4712($sp)
	ldc1	$f0, 11168($sp)                 # 8-byte Folded Reload
	sdc1	$f0, 4704($sp)
	ldc1	$f0, 11176($sp)                 # 8-byte Folded Reload
	sdc1	$f0, 4696($sp)
	ldc1	$f0, 11184($sp)                 # 8-byte Folded Reload
	sdc1	$f0, 4688($sp)
	ldc1	$f0, 11192($sp)                 # 8-byte Folded Reload
	sdc1	$f0, 4680($sp)
	ldc1	$f0, 11200($sp)                 # 8-byte Folded Reload
	sdc1	$f0, 4672($sp)
	ldc1	$f0, 11208($sp)                 # 8-byte Folded Reload
	sdc1	$f0, 4664($sp)
	ldc1	$f0, 11216($sp)                 # 8-byte Folded Reload
	sdc1	$f0, 4656($sp)
	ldc1	$f0, 11224($sp)                 # 8-byte Folded Reload
	sdc1	$f0, 4648($sp)
	ldc1	$f0, 11232($sp)                 # 8-byte Folded Reload
	sdc1	$f0, 4640($sp)
	ldc1	$f0, 11240($sp)                 # 8-byte Folded Reload
	sdc1	$f0, 4632($sp)
	ldc1	$f0, 11248($sp)                 # 8-byte Folded Reload
	sdc1	$f0, 4624($sp)
	ldc1	$f0, 11256($sp)                 # 8-byte Folded Reload
	sdc1	$f0, 4616($sp)
	ldc1	$f0, 11264($sp)                 # 8-byte Folded Reload
	sdc1	$f0, 4608($sp)
	ldc1	$f0, 11272($sp)                 # 8-byte Folded Reload
	sdc1	$f0, 4600($sp)
	ldc1	$f0, 11280($sp)                 # 8-byte Folded Reload
	sdc1	$f0, 4592($sp)
	ldc1	$f0, 11288($sp)                 # 8-byte Folded Reload
	sdc1	$f0, 4584($sp)
	ldc1	$f0, 11296($sp)                 # 8-byte Folded Reload
	sdc1	$f0, 4576($sp)
	ldc1	$f0, 11304($sp)                 # 8-byte Folded Reload
	sdc1	$f0, 4568($sp)
	ldc1	$f0, 11312($sp)                 # 8-byte Folded Reload
	sdc1	$f0, 4560($sp)
	ldc1	$f0, 11320($sp)                 # 8-byte Folded Reload
	sdc1	$f0, 4552($sp)
	ldc1	$f0, 11328($sp)                 # 8-byte Folded Reload
	sdc1	$f0, 4544($sp)
	ldc1	$f0, 11336($sp)                 # 8-byte Folded Reload
	sdc1	$f0, 4536($sp)
	ldc1	$f0, 11344($sp)                 # 8-byte Folded Reload
	sdc1	$f0, 4528($sp)
	ldc1	$f0, 11352($sp)                 # 8-byte Folded Reload
	sdc1	$f0, 4520($sp)
	ldc1	$f0, 11360($sp)                 # 8-byte Folded Reload
	sdc1	$f0, 4512($sp)
	ldc1	$f0, 11368($sp)                 # 8-byte Folded Reload
	sdc1	$f0, 4504($sp)
	ldc1	$f0, 11376($sp)                 # 8-byte Folded Reload
	sdc1	$f0, 4496($sp)
	ldc1	$f0, 11384($sp)                 # 8-byte Folded Reload
	sdc1	$f0, 4488($sp)
	ldc1	$f0, 11392($sp)                 # 8-byte Folded Reload
	sdc1	$f0, 4480($sp)
	ldc1	$f0, 11400($sp)                 # 8-byte Folded Reload
	sdc1	$f0, 4472($sp)
	ldc1	$f0, 11408($sp)                 # 8-byte Folded Reload
	sdc1	$f0, 4464($sp)
	ldc1	$f0, 11416($sp)                 # 8-byte Folded Reload
	sdc1	$f0, 4456($sp)
	ldc1	$f0, 11424($sp)                 # 8-byte Folded Reload
	sdc1	$f0, 4448($sp)
	ldc1	$f0, 11432($sp)                 # 8-byte Folded Reload
	sdc1	$f0, 4440($sp)
	ldc1	$f0, 11440($sp)                 # 8-byte Folded Reload
	sdc1	$f0, 4432($sp)
	ldc1	$f0, 11448($sp)                 # 8-byte Folded Reload
	sdc1	$f0, 4424($sp)
	ldc1	$f0, 11456($sp)                 # 8-byte Folded Reload
	sdc1	$f0, 4416($sp)
	ldc1	$f0, 11464($sp)                 # 8-byte Folded Reload
	sdc1	$f0, 4408($sp)
	ldc1	$f0, 11472($sp)                 # 8-byte Folded Reload
	sdc1	$f0, 4400($sp)
	ldc1	$f0, 11480($sp)                 # 8-byte Folded Reload
	sdc1	$f0, 4392($sp)
	ldc1	$f0, 11488($sp)                 # 8-byte Folded Reload
	sdc1	$f0, 4384($sp)
	ldc1	$f0, 11496($sp)                 # 8-byte Folded Reload
	sdc1	$f0, 4376($sp)
	ldc1	$f0, 11504($sp)                 # 8-byte Folded Reload
	sdc1	$f0, 4368($sp)
	ldc1	$f0, 11512($sp)                 # 8-byte Folded Reload
	sdc1	$f0, 4360($sp)
	ldc1	$f0, 11520($sp)                 # 8-byte Folded Reload
	sdc1	$f0, 4352($sp)
	ldc1	$f0, 11528($sp)                 # 8-byte Folded Reload
	sdc1	$f0, 4344($sp)
	ldc1	$f0, 11536($sp)                 # 8-byte Folded Reload
	sdc1	$f0, 4336($sp)
	ldc1	$f0, 11544($sp)                 # 8-byte Folded Reload
	sdc1	$f0, 4328($sp)
	ldc1	$f0, 11552($sp)                 # 8-byte Folded Reload
	sdc1	$f0, 4320($sp)
	ldc1	$f0, 11560($sp)                 # 8-byte Folded Reload
	sdc1	$f0, 4312($sp)
	ldc1	$f0, 11568($sp)                 # 8-byte Folded Reload
	sdc1	$f0, 4304($sp)
	ldc1	$f0, 11576($sp)                 # 8-byte Folded Reload
	sdc1	$f0, 4296($sp)
	ldc1	$f0, 11584($sp)                 # 8-byte Folded Reload
	sdc1	$f0, 4288($sp)
	ldc1	$f0, 11592($sp)                 # 8-byte Folded Reload
	sdc1	$f0, 4280($sp)
	ldc1	$f0, 11600($sp)                 # 8-byte Folded Reload
	sdc1	$f0, 4272($sp)
	ldc1	$f0, 11608($sp)                 # 8-byte Folded Reload
	sdc1	$f0, 4264($sp)
	ldc1	$f0, 11616($sp)                 # 8-byte Folded Reload
	sdc1	$f0, 4256($sp)
	ldc1	$f0, 11624($sp)                 # 8-byte Folded Reload
	sdc1	$f0, 4248($sp)
	ldc1	$f0, 11632($sp)                 # 8-byte Folded Reload
	sdc1	$f0, 4240($sp)
	ldc1	$f0, 11640($sp)                 # 8-byte Folded Reload
	sdc1	$f0, 4232($sp)
	ldc1	$f0, 11648($sp)                 # 8-byte Folded Reload
	sdc1	$f0, 4224($sp)
	ldc1	$f0, 11656($sp)                 # 8-byte Folded Reload
	sdc1	$f0, 4216($sp)
	ldc1	$f0, 11664($sp)                 # 8-byte Folded Reload
	sdc1	$f0, 4208($sp)
	ldc1	$f0, 11672($sp)                 # 8-byte Folded Reload
	sdc1	$f0, 4200($sp)
	ldc1	$f0, 11680($sp)                 # 8-byte Folded Reload
	sdc1	$f0, 4192($sp)
	ldc1	$f0, 11688($sp)                 # 8-byte Folded Reload
	sdc1	$f0, 4184($sp)
	ldc1	$f0, 11696($sp)                 # 8-byte Folded Reload
	sdc1	$f0, 4176($sp)
	ldc1	$f0, 11704($sp)                 # 8-byte Folded Reload
	sdc1	$f0, 4168($sp)
	ldc1	$f0, 11712($sp)                 # 8-byte Folded Reload
	sdc1	$f0, 4160($sp)
	ldc1	$f0, 11720($sp)                 # 8-byte Folded Reload
	sdc1	$f0, 4152($sp)
	ldc1	$f0, 11728($sp)                 # 8-byte Folded Reload
	sdc1	$f0, 4144($sp)
	ldc1	$f0, 11736($sp)                 # 8-byte Folded Reload
	sdc1	$f0, 4136($sp)
	ldc1	$f0, 11744($sp)                 # 8-byte Folded Reload
	sdc1	$f0, 4128($sp)
	ldc1	$f0, 11752($sp)                 # 8-byte Folded Reload
	sdc1	$f0, 4120($sp)
	ldc1	$f0, 11760($sp)                 # 8-byte Folded Reload
	sdc1	$f0, 4112($sp)
	ldc1	$f0, 11768($sp)                 # 8-byte Folded Reload
	sdc1	$f0, 4104($sp)
	ldc1	$f0, 11776($sp)                 # 8-byte Folded Reload
	sdc1	$f0, 4096($sp)
	ldc1	$f0, 11784($sp)                 # 8-byte Folded Reload
	sdc1	$f0, 4088($sp)
	ldc1	$f0, 11792($sp)                 # 8-byte Folded Reload
	sdc1	$f0, 4080($sp)
	ldc1	$f0, 11800($sp)                 # 8-byte Folded Reload
	sdc1	$f0, 4072($sp)
	ldc1	$f0, 11808($sp)                 # 8-byte Folded Reload
	sdc1	$f0, 4064($sp)
	ldc1	$f0, 11816($sp)                 # 8-byte Folded Reload
	sdc1	$f0, 4056($sp)
	ldc1	$f0, 11824($sp)                 # 8-byte Folded Reload
	sdc1	$f0, 4048($sp)
	ldc1	$f0, 11832($sp)                 # 8-byte Folded Reload
	sdc1	$f0, 4040($sp)
	ldc1	$f0, 11840($sp)                 # 8-byte Folded Reload
	sdc1	$f0, 4032($sp)
	ldc1	$f0, 11848($sp)                 # 8-byte Folded Reload
	sdc1	$f0, 4024($sp)
	ldc1	$f0, 11856($sp)                 # 8-byte Folded Reload
	sdc1	$f0, 4016($sp)
	ldc1	$f0, 11864($sp)                 # 8-byte Folded Reload
	sdc1	$f0, 4008($sp)
	ldc1	$f0, 11872($sp)                 # 8-byte Folded Reload
	sdc1	$f0, 4000($sp)
	ldc1	$f0, 11880($sp)                 # 8-byte Folded Reload
	sdc1	$f0, 3992($sp)
	ldc1	$f0, 11888($sp)                 # 8-byte Folded Reload
	sdc1	$f0, 3984($sp)
	ldc1	$f0, 11896($sp)                 # 8-byte Folded Reload
	sdc1	$f0, 3976($sp)
	ldc1	$f0, 11904($sp)                 # 8-byte Folded Reload
	sdc1	$f0, 3968($sp)
	ldc1	$f0, 11912($sp)                 # 8-byte Folded Reload
	sdc1	$f0, 3960($sp)
	ldc1	$f0, 11920($sp)                 # 8-byte Folded Reload
	sdc1	$f0, 3952($sp)
	ldc1	$f0, 11928($sp)                 # 8-byte Folded Reload
	sdc1	$f0, 3944($sp)
	ldc1	$f0, 11936($sp)                 # 8-byte Folded Reload
	sdc1	$f0, 3936($sp)
	ldc1	$f0, 11944($sp)                 # 8-byte Folded Reload
	sdc1	$f0, 3928($sp)
	ldc1	$f0, 11952($sp)                 # 8-byte Folded Reload
	sdc1	$f0, 3920($sp)
	ldc1	$f0, 11960($sp)                 # 8-byte Folded Reload
	sdc1	$f0, 3912($sp)
	ldc1	$f0, 11968($sp)                 # 8-byte Folded Reload
	sdc1	$f0, 3904($sp)
	ldc1	$f0, 11976($sp)                 # 8-byte Folded Reload
	sdc1	$f0, 3896($sp)
	ldc1	$f0, 11984($sp)                 # 8-byte Folded Reload
	sdc1	$f0, 3888($sp)
	ldc1	$f0, 11992($sp)                 # 8-byte Folded Reload
	sdc1	$f0, 3880($sp)
	ldc1	$f0, 12000($sp)                 # 8-byte Folded Reload
	sdc1	$f0, 3872($sp)
	ldc1	$f0, 12008($sp)                 # 8-byte Folded Reload
	sdc1	$f0, 3864($sp)
	ldc1	$f0, 12016($sp)                 # 8-byte Folded Reload
	sdc1	$f0, 3856($sp)
	ldc1	$f0, 12024($sp)                 # 8-byte Folded Reload
	sdc1	$f0, 3848($sp)
	ldc1	$f0, 12032($sp)                 # 8-byte Folded Reload
	sdc1	$f0, 3840($sp)
	ldc1	$f0, 12040($sp)                 # 8-byte Folded Reload
	sdc1	$f0, 3832($sp)
	ldc1	$f0, 12048($sp)                 # 8-byte Folded Reload
	sdc1	$f0, 3824($sp)
	ldc1	$f0, 12056($sp)                 # 8-byte Folded Reload
	sdc1	$f0, 3816($sp)
	ldc1	$f0, 12064($sp)                 # 8-byte Folded Reload
	sdc1	$f0, 3808($sp)
	ldc1	$f0, 12072($sp)                 # 8-byte Folded Reload
	sdc1	$f0, 3800($sp)
	ldc1	$f0, 12080($sp)                 # 8-byte Folded Reload
	sdc1	$f0, 3792($sp)
	ldc1	$f0, 12088($sp)                 # 8-byte Folded Reload
	sdc1	$f0, 3784($sp)
	ldc1	$f0, 12096($sp)                 # 8-byte Folded Reload
	sdc1	$f0, 3776($sp)
	ldc1	$f0, 12104($sp)                 # 8-byte Folded Reload
	sdc1	$f0, 3768($sp)
	ldc1	$f0, 12112($sp)                 # 8-byte Folded Reload
	sdc1	$f0, 3760($sp)
	ldc1	$f0, 12120($sp)                 # 8-byte Folded Reload
	sdc1	$f0, 3752($sp)
	ldc1	$f0, 12128($sp)                 # 8-byte Folded Reload
	sdc1	$f0, 3744($sp)
	ldc1	$f0, 12136($sp)                 # 8-byte Folded Reload
	sdc1	$f0, 3736($sp)
	ldc1	$f0, 12144($sp)                 # 8-byte Folded Reload
	sdc1	$f0, 3728($sp)
	ldc1	$f0, 12152($sp)                 # 8-byte Folded Reload
	sdc1	$f0, 3720($sp)
	ldc1	$f0, 12160($sp)                 # 8-byte Folded Reload
	sdc1	$f0, 3712($sp)
	ldc1	$f0, 12168($sp)                 # 8-byte Folded Reload
	sdc1	$f0, 3704($sp)
	ldc1	$f0, 12176($sp)                 # 8-byte Folded Reload
	sdc1	$f0, 3696($sp)
	ldc1	$f0, 12184($sp)                 # 8-byte Folded Reload
	sdc1	$f0, 3688($sp)
	ldc1	$f0, 12192($sp)                 # 8-byte Folded Reload
	sdc1	$f0, 3680($sp)
	ldc1	$f0, 12200($sp)                 # 8-byte Folded Reload
	sdc1	$f0, 3672($sp)
	ldc1	$f0, 12208($sp)                 # 8-byte Folded Reload
	sdc1	$f0, 3664($sp)
	ldc1	$f0, 12216($sp)                 # 8-byte Folded Reload
	sdc1	$f0, 3656($sp)
	ldc1	$f0, 12224($sp)                 # 8-byte Folded Reload
	sdc1	$f0, 3648($sp)
	ldc1	$f0, 12232($sp)                 # 8-byte Folded Reload
	sdc1	$f0, 3640($sp)
	ldc1	$f0, 12240($sp)                 # 8-byte Folded Reload
	sdc1	$f0, 3632($sp)
	ldc1	$f0, 12248($sp)                 # 8-byte Folded Reload
	sdc1	$f0, 3624($sp)
	ldc1	$f0, 12256($sp)                 # 8-byte Folded Reload
	sdc1	$f0, 3616($sp)
	ldc1	$f0, 12264($sp)                 # 8-byte Folded Reload
	sdc1	$f0, 3608($sp)
	ldc1	$f0, 12272($sp)                 # 8-byte Folded Reload
	sdc1	$f0, 3600($sp)
	ldc1	$f0, 12280($sp)                 # 8-byte Folded Reload
	sdc1	$f0, 3592($sp)
	ldc1	$f0, 12288($sp)                 # 8-byte Folded Reload
	sdc1	$f0, 3584($sp)
	ldc1	$f0, 12296($sp)                 # 8-byte Folded Reload
	sdc1	$f0, 3576($sp)
	ldc1	$f0, 12304($sp)                 # 8-byte Folded Reload
	sdc1	$f0, 3568($sp)
	ldc1	$f0, 12312($sp)                 # 8-byte Folded Reload
	sdc1	$f0, 3560($sp)
	ldc1	$f0, 12320($sp)                 # 8-byte Folded Reload
	sdc1	$f0, 3552($sp)
	ldc1	$f0, 12328($sp)                 # 8-byte Folded Reload
	sdc1	$f0, 3544($sp)
	ldc1	$f0, 12336($sp)                 # 8-byte Folded Reload
	sdc1	$f0, 3536($sp)
	ldc1	$f0, 12344($sp)                 # 8-byte Folded Reload
	sdc1	$f0, 3528($sp)
	ldc1	$f0, 12352($sp)                 # 8-byte Folded Reload
	sdc1	$f0, 3520($sp)
	ldc1	$f0, 12360($sp)                 # 8-byte Folded Reload
	sdc1	$f0, 3512($sp)
	ldc1	$f0, 12368($sp)                 # 8-byte Folded Reload
	sdc1	$f0, 3504($sp)
	ldc1	$f0, 12376($sp)                 # 8-byte Folded Reload
	sdc1	$f0, 3496($sp)
	ldc1	$f0, 12384($sp)                 # 8-byte Folded Reload
	sdc1	$f0, 3488($sp)
	ldc1	$f0, 12392($sp)                 # 8-byte Folded Reload
	sdc1	$f0, 3480($sp)
	ldc1	$f0, 12400($sp)                 # 8-byte Folded Reload
	sdc1	$f0, 3472($sp)
	ldc1	$f0, 12408($sp)                 # 8-byte Folded Reload
	sdc1	$f0, 3464($sp)
	ldc1	$f0, 12416($sp)                 # 8-byte Folded Reload
	sdc1	$f0, 3456($sp)
	ldc1	$f0, 12424($sp)                 # 8-byte Folded Reload
	sdc1	$f0, 3448($sp)
	ldc1	$f0, 12432($sp)                 # 8-byte Folded Reload
	sdc1	$f0, 3440($sp)
	ldc1	$f0, 12440($sp)                 # 8-byte Folded Reload
	sdc1	$f0, 3432($sp)
	ldc1	$f0, 12448($sp)                 # 8-byte Folded Reload
	sdc1	$f0, 3424($sp)
	ldc1	$f0, 12456($sp)                 # 8-byte Folded Reload
	sdc1	$f0, 3416($sp)
	ldc1	$f0, 12464($sp)                 # 8-byte Folded Reload
	sdc1	$f0, 3408($sp)
	ldc1	$f0, 12472($sp)                 # 8-byte Folded Reload
	sdc1	$f0, 3400($sp)
	ldc1	$f0, 12480($sp)                 # 8-byte Folded Reload
	sdc1	$f0, 3392($sp)
	ldc1	$f0, 12488($sp)                 # 8-byte Folded Reload
	sdc1	$f0, 3384($sp)
	ldc1	$f0, 12496($sp)                 # 8-byte Folded Reload
	sdc1	$f0, 3376($sp)
	ldc1	$f0, 12504($sp)                 # 8-byte Folded Reload
	sdc1	$f0, 3368($sp)
	ldc1	$f0, 12512($sp)                 # 8-byte Folded Reload
	sdc1	$f0, 3360($sp)
	ldc1	$f0, 12520($sp)                 # 8-byte Folded Reload
	sdc1	$f0, 3352($sp)
	ldc1	$f0, 12528($sp)                 # 8-byte Folded Reload
	sdc1	$f0, 3344($sp)
	ldc1	$f0, 12536($sp)                 # 8-byte Folded Reload
	sdc1	$f0, 3336($sp)
	ldc1	$f0, 12544($sp)                 # 8-byte Folded Reload
	sdc1	$f0, 3328($sp)
	ldc1	$f0, 12552($sp)                 # 8-byte Folded Reload
	sdc1	$f0, 3320($sp)
	ldc1	$f0, 12560($sp)                 # 8-byte Folded Reload
	sdc1	$f0, 3312($sp)
	ldc1	$f0, 12568($sp)                 # 8-byte Folded Reload
	sdc1	$f0, 3304($sp)
	ldc1	$f0, 12576($sp)                 # 8-byte Folded Reload
	sdc1	$f0, 3296($sp)
	ldc1	$f0, 12584($sp)                 # 8-byte Folded Reload
	sdc1	$f0, 3288($sp)
	ldc1	$f0, 12592($sp)                 # 8-byte Folded Reload
	sdc1	$f0, 3280($sp)
	ldc1	$f0, 12600($sp)                 # 8-byte Folded Reload
	sdc1	$f0, 3272($sp)
	ldc1	$f0, 12608($sp)                 # 8-byte Folded Reload
	sdc1	$f0, 3264($sp)
	ldc1	$f0, 12616($sp)                 # 8-byte Folded Reload
	sdc1	$f0, 3256($sp)
	ldc1	$f0, 12624($sp)                 # 8-byte Folded Reload
	sdc1	$f0, 3248($sp)
	ldc1	$f0, 12632($sp)                 # 8-byte Folded Reload
	sdc1	$f0, 3240($sp)
	ldc1	$f0, 12640($sp)                 # 8-byte Folded Reload
	sdc1	$f0, 3232($sp)
	ldc1	$f0, 12648($sp)                 # 8-byte Folded Reload
	sdc1	$f0, 3224($sp)
	ldc1	$f0, 12656($sp)                 # 8-byte Folded Reload
	sdc1	$f0, 3216($sp)
	ldc1	$f0, 12664($sp)                 # 8-byte Folded Reload
	sdc1	$f0, 3208($sp)
	ldc1	$f0, 12672($sp)                 # 8-byte Folded Reload
	sdc1	$f0, 3200($sp)
	ldc1	$f0, 12680($sp)                 # 8-byte Folded Reload
	sdc1	$f0, 3192($sp)
	ldc1	$f0, 12688($sp)                 # 8-byte Folded Reload
	sdc1	$f0, 3184($sp)
	ldc1	$f0, 12696($sp)                 # 8-byte Folded Reload
	sdc1	$f0, 3176($sp)
	ldc1	$f0, 12704($sp)                 # 8-byte Folded Reload
	sdc1	$f0, 3168($sp)
	ldc1	$f0, 12712($sp)                 # 8-byte Folded Reload
	sdc1	$f0, 3160($sp)
	ldc1	$f0, 12720($sp)                 # 8-byte Folded Reload
	sdc1	$f0, 3152($sp)
	ldc1	$f0, 12728($sp)                 # 8-byte Folded Reload
	sdc1	$f0, 3144($sp)
	ldc1	$f0, 12736($sp)                 # 8-byte Folded Reload
	sdc1	$f0, 3136($sp)
	ldc1	$f0, 12744($sp)                 # 8-byte Folded Reload
	sdc1	$f0, 3128($sp)
	ldc1	$f0, 12752($sp)                 # 8-byte Folded Reload
	sdc1	$f0, 3120($sp)
	ldc1	$f0, 12760($sp)                 # 8-byte Folded Reload
	sdc1	$f0, 3112($sp)
	ldc1	$f0, 12768($sp)                 # 8-byte Folded Reload
	sdc1	$f0, 3104($sp)
	ldc1	$f0, 12776($sp)                 # 8-byte Folded Reload
	sdc1	$f0, 3096($sp)
	ldc1	$f0, 12784($sp)                 # 8-byte Folded Reload
	sdc1	$f0, 3088($sp)
	ldc1	$f0, 12792($sp)                 # 8-byte Folded Reload
	sdc1	$f0, 3080($sp)
	ldc1	$f0, 12800($sp)                 # 8-byte Folded Reload
	sdc1	$f0, 3072($sp)
	ldc1	$f0, 12808($sp)                 # 8-byte Folded Reload
	sdc1	$f0, 3064($sp)
	ldc1	$f0, 12816($sp)                 # 8-byte Folded Reload
	sdc1	$f0, 3056($sp)
	ldc1	$f0, 12824($sp)                 # 8-byte Folded Reload
	sdc1	$f0, 3048($sp)
	ldc1	$f0, 12832($sp)                 # 8-byte Folded Reload
	sdc1	$f0, 3040($sp)
	ldc1	$f0, 12840($sp)                 # 8-byte Folded Reload
	sdc1	$f0, 3032($sp)
	ldc1	$f0, 12848($sp)                 # 8-byte Folded Reload
	sdc1	$f0, 3024($sp)
	ldc1	$f0, 12856($sp)                 # 8-byte Folded Reload
	sdc1	$f0, 3016($sp)
	ldc1	$f0, 12864($sp)                 # 8-byte Folded Reload
	sdc1	$f0, 3008($sp)
	ldc1	$f0, 12872($sp)                 # 8-byte Folded Reload
	sdc1	$f0, 3000($sp)
	ldc1	$f0, 12880($sp)                 # 8-byte Folded Reload
	sdc1	$f0, 2992($sp)
	ldc1	$f0, 12888($sp)                 # 8-byte Folded Reload
	sdc1	$f0, 2984($sp)
	ldc1	$f0, 12896($sp)                 # 8-byte Folded Reload
	sdc1	$f0, 2976($sp)
	ldc1	$f0, 12904($sp)                 # 8-byte Folded Reload
	sdc1	$f0, 2968($sp)
	ldc1	$f0, 12912($sp)                 # 8-byte Folded Reload
	sdc1	$f0, 2960($sp)
	ldc1	$f0, 12920($sp)                 # 8-byte Folded Reload
	sdc1	$f0, 2952($sp)
	ldc1	$f0, 12928($sp)                 # 8-byte Folded Reload
	sdc1	$f0, 2944($sp)
	ldc1	$f0, 12936($sp)                 # 8-byte Folded Reload
	sdc1	$f0, 2936($sp)
	ldc1	$f0, 12944($sp)                 # 8-byte Folded Reload
	sdc1	$f0, 2928($sp)
	ldc1	$f0, 12952($sp)                 # 8-byte Folded Reload
	sdc1	$f0, 2920($sp)
	ldc1	$f0, 12960($sp)                 # 8-byte Folded Reload
	sdc1	$f0, 2912($sp)
	ldc1	$f0, 12968($sp)                 # 8-byte Folded Reload
	sdc1	$f0, 2904($sp)
	ldc1	$f0, 12976($sp)                 # 8-byte Folded Reload
	sdc1	$f0, 2896($sp)
	ldc1	$f0, 12984($sp)                 # 8-byte Folded Reload
	sdc1	$f0, 2888($sp)
	ldc1	$f0, 12992($sp)                 # 8-byte Folded Reload
	sdc1	$f0, 2880($sp)
	ldc1	$f0, 13000($sp)                 # 8-byte Folded Reload
	sdc1	$f0, 2872($sp)
	ldc1	$f0, 13008($sp)                 # 8-byte Folded Reload
	sdc1	$f0, 2864($sp)
	ldc1	$f0, 13016($sp)                 # 8-byte Folded Reload
	sdc1	$f0, 2856($sp)
	ldc1	$f0, 13024($sp)                 # 8-byte Folded Reload
	sdc1	$f0, 2848($sp)
	ldc1	$f0, 13032($sp)                 # 8-byte Folded Reload
	sdc1	$f0, 2840($sp)
	ldc1	$f0, 13040($sp)                 # 8-byte Folded Reload
	sdc1	$f0, 2832($sp)
	ldc1	$f0, 13048($sp)                 # 8-byte Folded Reload
	sdc1	$f0, 2824($sp)
	ldc1	$f0, 13056($sp)                 # 8-byte Folded Reload
	sdc1	$f0, 2816($sp)
	ldc1	$f0, 13064($sp)                 # 8-byte Folded Reload
	sdc1	$f0, 2808($sp)
	ldc1	$f0, 13072($sp)                 # 8-byte Folded Reload
	sdc1	$f0, 2800($sp)
	ldc1	$f0, 13080($sp)                 # 8-byte Folded Reload
	sdc1	$f0, 2792($sp)
	ldc1	$f0, 13088($sp)                 # 8-byte Folded Reload
	sdc1	$f0, 2784($sp)
	ldc1	$f0, 13096($sp)                 # 8-byte Folded Reload
	sdc1	$f0, 2776($sp)
	ldc1	$f0, 13104($sp)                 # 8-byte Folded Reload
	sdc1	$f0, 2768($sp)
	ldc1	$f0, 13112($sp)                 # 8-byte Folded Reload
	sdc1	$f0, 2760($sp)
	ldc1	$f0, 13120($sp)                 # 8-byte Folded Reload
	sdc1	$f0, 2752($sp)
	ldc1	$f0, 13128($sp)                 # 8-byte Folded Reload
	sdc1	$f0, 2744($sp)
	ldc1	$f0, 13136($sp)                 # 8-byte Folded Reload
	sdc1	$f0, 2736($sp)
	ldc1	$f0, 13144($sp)                 # 8-byte Folded Reload
	sdc1	$f0, 2728($sp)
	ldc1	$f0, 13152($sp)                 # 8-byte Folded Reload
	sdc1	$f0, 2720($sp)
	ldc1	$f0, 13160($sp)                 # 8-byte Folded Reload
	sdc1	$f0, 2712($sp)
	ldc1	$f0, 13168($sp)                 # 8-byte Folded Reload
	sdc1	$f0, 2704($sp)
	ldc1	$f0, 13176($sp)                 # 8-byte Folded Reload
	sdc1	$f0, 2696($sp)
	ldc1	$f0, 13184($sp)                 # 8-byte Folded Reload
	sdc1	$f0, 2688($sp)
	ldc1	$f0, 13192($sp)                 # 8-byte Folded Reload
	sdc1	$f0, 2680($sp)
	ldc1	$f0, 13200($sp)                 # 8-byte Folded Reload
	sdc1	$f0, 2672($sp)
	ldc1	$f0, 13208($sp)                 # 8-byte Folded Reload
	sdc1	$f0, 2664($sp)
	ldc1	$f0, 13216($sp)                 # 8-byte Folded Reload
	sdc1	$f0, 2656($sp)
	ldc1	$f0, 13224($sp)                 # 8-byte Folded Reload
	sdc1	$f0, 2648($sp)
	ldc1	$f0, 13232($sp)                 # 8-byte Folded Reload
	sdc1	$f0, 2640($sp)
	ldc1	$f0, 13240($sp)                 # 8-byte Folded Reload
	sdc1	$f0, 2632($sp)
	ldc1	$f0, 13248($sp)                 # 8-byte Folded Reload
	sdc1	$f0, 2624($sp)
	ldc1	$f0, 13256($sp)                 # 8-byte Folded Reload
	sdc1	$f0, 2616($sp)
	ldc1	$f0, 13264($sp)                 # 8-byte Folded Reload
	sdc1	$f0, 2608($sp)
	ldc1	$f0, 13272($sp)                 # 8-byte Folded Reload
	sdc1	$f0, 2600($sp)
	ldc1	$f0, 13280($sp)                 # 8-byte Folded Reload
	sdc1	$f0, 2592($sp)
	ldc1	$f0, 13288($sp)                 # 8-byte Folded Reload
	sdc1	$f0, 2584($sp)
	ldc1	$f0, 13296($sp)                 # 8-byte Folded Reload
	sdc1	$f0, 2576($sp)
	ldc1	$f0, 13304($sp)                 # 8-byte Folded Reload
	sdc1	$f0, 2568($sp)
	ldc1	$f0, 13312($sp)                 # 8-byte Folded Reload
	sdc1	$f0, 2560($sp)
	ldc1	$f0, 13320($sp)                 # 8-byte Folded Reload
	sdc1	$f0, 2552($sp)
	ldc1	$f0, 13328($sp)                 # 8-byte Folded Reload
	sdc1	$f0, 2544($sp)
	ldc1	$f0, 13336($sp)                 # 8-byte Folded Reload
	sdc1	$f0, 2536($sp)
	ldc1	$f0, 13344($sp)                 # 8-byte Folded Reload
	sdc1	$f0, 2528($sp)
	ldc1	$f0, 13352($sp)                 # 8-byte Folded Reload
	sdc1	$f0, 2520($sp)
	ldc1	$f0, 13360($sp)                 # 8-byte Folded Reload
	sdc1	$f0, 2512($sp)
	ldc1	$f0, 13368($sp)                 # 8-byte Folded Reload
	sdc1	$f0, 2504($sp)
	ldc1	$f0, 13376($sp)                 # 8-byte Folded Reload
	sdc1	$f0, 2496($sp)
	ldc1	$f0, 13384($sp)                 # 8-byte Folded Reload
	sdc1	$f0, 2488($sp)
	ldc1	$f0, 13392($sp)                 # 8-byte Folded Reload
	sdc1	$f0, 2480($sp)
	ldc1	$f0, 13400($sp)                 # 8-byte Folded Reload
	sdc1	$f0, 2472($sp)
	ldc1	$f0, 13408($sp)                 # 8-byte Folded Reload
	sdc1	$f0, 2464($sp)
	ldc1	$f0, 13416($sp)                 # 8-byte Folded Reload
	sdc1	$f0, 2456($sp)
	ldc1	$f0, 13424($sp)                 # 8-byte Folded Reload
	sdc1	$f0, 2448($sp)
	ldc1	$f0, 13432($sp)                 # 8-byte Folded Reload
	sdc1	$f0, 2440($sp)
	ldc1	$f0, 13440($sp)                 # 8-byte Folded Reload
	sdc1	$f0, 2432($sp)
	ldc1	$f0, 13448($sp)                 # 8-byte Folded Reload
	sdc1	$f0, 2424($sp)
	ldc1	$f0, 13456($sp)                 # 8-byte Folded Reload
	sdc1	$f0, 2416($sp)
	ldc1	$f0, 13464($sp)                 # 8-byte Folded Reload
	sdc1	$f0, 2408($sp)
	ldc1	$f0, 13472($sp)                 # 8-byte Folded Reload
	sdc1	$f0, 2400($sp)
	ldc1	$f0, 13480($sp)                 # 8-byte Folded Reload
	sdc1	$f0, 2392($sp)
	ldc1	$f0, 13488($sp)                 # 8-byte Folded Reload
	sdc1	$f0, 2384($sp)
	ldc1	$f0, 13496($sp)                 # 8-byte Folded Reload
	sdc1	$f0, 2376($sp)
	ldc1	$f0, 13504($sp)                 # 8-byte Folded Reload
	sdc1	$f0, 2368($sp)
	ldc1	$f0, 13512($sp)                 # 8-byte Folded Reload
	sdc1	$f0, 2360($sp)
	ldc1	$f0, 13520($sp)                 # 8-byte Folded Reload
	sdc1	$f0, 2352($sp)
	ldc1	$f0, 13528($sp)                 # 8-byte Folded Reload
	sdc1	$f0, 2344($sp)
	ldc1	$f0, 13536($sp)                 # 8-byte Folded Reload
	sdc1	$f0, 2336($sp)
	ldc1	$f0, 13544($sp)                 # 8-byte Folded Reload
	sdc1	$f0, 2328($sp)
	ldc1	$f0, 13552($sp)                 # 8-byte Folded Reload
	sdc1	$f0, 2320($sp)
	ldc1	$f0, 13560($sp)                 # 8-byte Folded Reload
	sdc1	$f0, 2312($sp)
	ldc1	$f0, 13568($sp)                 # 8-byte Folded Reload
	sdc1	$f0, 2304($sp)
	ldc1	$f0, 13576($sp)                 # 8-byte Folded Reload
	sdc1	$f0, 2296($sp)
	ldc1	$f0, 13584($sp)                 # 8-byte Folded Reload
	sdc1	$f0, 2288($sp)
	ldc1	$f0, 13592($sp)                 # 8-byte Folded Reload
	sdc1	$f0, 2280($sp)
	ldc1	$f0, 13600($sp)                 # 8-byte Folded Reload
	sdc1	$f0, 2272($sp)
	ldc1	$f0, 13608($sp)                 # 8-byte Folded Reload
	sdc1	$f0, 2264($sp)
	ldc1	$f0, 13616($sp)                 # 8-byte Folded Reload
	sdc1	$f0, 2256($sp)
	ldc1	$f0, 13624($sp)                 # 8-byte Folded Reload
	sdc1	$f0, 2248($sp)
	ldc1	$f0, 13632($sp)                 # 8-byte Folded Reload
	sdc1	$f0, 2240($sp)
	ldc1	$f0, 13640($sp)                 # 8-byte Folded Reload
	sdc1	$f0, 2232($sp)
	ldc1	$f0, 13648($sp)                 # 8-byte Folded Reload
	sdc1	$f0, 2224($sp)
	ldc1	$f0, 13656($sp)                 # 8-byte Folded Reload
	sdc1	$f0, 2216($sp)
	ldc1	$f0, 13664($sp)                 # 8-byte Folded Reload
	sdc1	$f0, 2208($sp)
	ldc1	$f0, 13672($sp)                 # 8-byte Folded Reload
	sdc1	$f0, 2200($sp)
	ldc1	$f0, 13680($sp)                 # 8-byte Folded Reload
	sdc1	$f0, 2192($sp)
	ldc1	$f0, 13688($sp)                 # 8-byte Folded Reload
	sdc1	$f0, 2184($sp)
	ldc1	$f0, 13696($sp)                 # 8-byte Folded Reload
	sdc1	$f0, 2176($sp)
	ldc1	$f0, 13704($sp)                 # 8-byte Folded Reload
	sdc1	$f0, 2168($sp)
	ldc1	$f0, 13712($sp)                 # 8-byte Folded Reload
	sdc1	$f0, 2160($sp)
	ldc1	$f0, 13720($sp)                 # 8-byte Folded Reload
	sdc1	$f0, 2152($sp)
	ldc1	$f0, 13728($sp)                 # 8-byte Folded Reload
	sdc1	$f0, 2144($sp)
	ldc1	$f0, 13736($sp)                 # 8-byte Folded Reload
	sdc1	$f0, 2136($sp)
	ldc1	$f0, 13744($sp)                 # 8-byte Folded Reload
	sdc1	$f0, 2128($sp)
	ldc1	$f0, 13752($sp)                 # 8-byte Folded Reload
	sdc1	$f0, 2120($sp)
	ldc1	$f0, 13760($sp)                 # 8-byte Folded Reload
	sdc1	$f0, 2112($sp)
	ldc1	$f0, 13768($sp)                 # 8-byte Folded Reload
	sdc1	$f0, 2104($sp)
	ldc1	$f0, 13776($sp)                 # 8-byte Folded Reload
	sdc1	$f0, 2096($sp)
	ldc1	$f0, 13784($sp)                 # 8-byte Folded Reload
	sdc1	$f0, 2088($sp)
	ldc1	$f0, 13792($sp)                 # 8-byte Folded Reload
	sdc1	$f0, 2080($sp)
	ldc1	$f0, 13800($sp)                 # 8-byte Folded Reload
	sdc1	$f0, 2072($sp)
	ldc1	$f0, 13808($sp)                 # 8-byte Folded Reload
	sdc1	$f0, 2064($sp)
	ldc1	$f0, 13816($sp)                 # 8-byte Folded Reload
	sdc1	$f0, 2056($sp)
	ldc1	$f0, 13824($sp)                 # 8-byte Folded Reload
	sdc1	$f0, 2048($sp)
	ldc1	$f0, 13832($sp)                 # 8-byte Folded Reload
	sdc1	$f0, 2040($sp)
	ldc1	$f0, 13840($sp)                 # 8-byte Folded Reload
	sdc1	$f0, 2032($sp)
	ldc1	$f0, 13848($sp)                 # 8-byte Folded Reload
	sdc1	$f0, 2024($sp)
	ldc1	$f0, 13856($sp)                 # 8-byte Folded Reload
	sdc1	$f0, 2016($sp)
	ldc1	$f0, 13864($sp)                 # 8-byte Folded Reload
	sdc1	$f0, 2008($sp)
	ldc1	$f0, 13872($sp)                 # 8-byte Folded Reload
	sdc1	$f0, 2000($sp)
	ldc1	$f0, 13880($sp)                 # 8-byte Folded Reload
	sdc1	$f0, 1992($sp)
	ldc1	$f0, 13888($sp)                 # 8-byte Folded Reload
	sdc1	$f0, 1984($sp)
	ldc1	$f0, 13896($sp)                 # 8-byte Folded Reload
	sdc1	$f0, 1976($sp)
	ldc1	$f0, 13904($sp)                 # 8-byte Folded Reload
	sdc1	$f0, 1968($sp)
	ldc1	$f0, 13912($sp)                 # 8-byte Folded Reload
	sdc1	$f0, 1960($sp)
	ldc1	$f0, 13920($sp)                 # 8-byte Folded Reload
	sdc1	$f0, 1952($sp)
	ldc1	$f0, 13928($sp)                 # 8-byte Folded Reload
	sdc1	$f0, 1944($sp)
	ldc1	$f0, 13936($sp)                 # 8-byte Folded Reload
	sdc1	$f0, 1936($sp)
	ldc1	$f0, 13944($sp)                 # 8-byte Folded Reload
	sdc1	$f0, 1928($sp)
	ldc1	$f0, 13952($sp)                 # 8-byte Folded Reload
	sdc1	$f0, 1920($sp)
	ldc1	$f0, 13960($sp)                 # 8-byte Folded Reload
	sdc1	$f0, 1912($sp)
	ldc1	$f0, 13968($sp)                 # 8-byte Folded Reload
	sdc1	$f0, 1904($sp)
	ldc1	$f0, 13976($sp)                 # 8-byte Folded Reload
	sdc1	$f0, 1896($sp)
	ldc1	$f0, 13984($sp)                 # 8-byte Folded Reload
	sdc1	$f0, 1888($sp)
	ldc1	$f0, 13992($sp)                 # 8-byte Folded Reload
	sdc1	$f0, 1880($sp)
	ldc1	$f0, 14000($sp)                 # 8-byte Folded Reload
	sdc1	$f0, 1872($sp)
	ldc1	$f0, 14008($sp)                 # 8-byte Folded Reload
	sdc1	$f0, 1864($sp)
	ldc1	$f0, 14016($sp)                 # 8-byte Folded Reload
	sdc1	$f0, 1856($sp)
	ldc1	$f0, 14024($sp)                 # 8-byte Folded Reload
	sdc1	$f0, 1848($sp)
	ldc1	$f0, 14032($sp)                 # 8-byte Folded Reload
	sdc1	$f0, 1840($sp)
	ldc1	$f0, 14040($sp)                 # 8-byte Folded Reload
	sdc1	$f0, 1832($sp)
	ldc1	$f0, 14048($sp)                 # 8-byte Folded Reload
	sdc1	$f0, 1824($sp)
	ldc1	$f0, 14056($sp)                 # 8-byte Folded Reload
	sdc1	$f0, 1816($sp)
	ldc1	$f0, 14064($sp)                 # 8-byte Folded Reload
	sdc1	$f0, 1808($sp)
	ldc1	$f0, 14072($sp)                 # 8-byte Folded Reload
	sdc1	$f0, 1800($sp)
	ldc1	$f0, 14080($sp)                 # 8-byte Folded Reload
	sdc1	$f0, 1792($sp)
	ldc1	$f0, 14088($sp)                 # 8-byte Folded Reload
	sdc1	$f0, 1784($sp)
	ldc1	$f0, 14096($sp)                 # 8-byte Folded Reload
	sdc1	$f0, 1776($sp)
	ldc1	$f0, 14104($sp)                 # 8-byte Folded Reload
	sdc1	$f0, 1768($sp)
	ldc1	$f0, 14112($sp)                 # 8-byte Folded Reload
	sdc1	$f0, 1760($sp)
	ldc1	$f0, 14120($sp)                 # 8-byte Folded Reload
	sdc1	$f0, 1752($sp)
	ldc1	$f0, 14128($sp)                 # 8-byte Folded Reload
	sdc1	$f0, 1744($sp)
	ldc1	$f0, 14136($sp)                 # 8-byte Folded Reload
	sdc1	$f0, 1736($sp)
	ldc1	$f0, 14144($sp)                 # 8-byte Folded Reload
	sdc1	$f0, 1728($sp)
	ldc1	$f0, 14152($sp)                 # 8-byte Folded Reload
	sdc1	$f0, 1720($sp)
	ldc1	$f0, 14160($sp)                 # 8-byte Folded Reload
	sdc1	$f0, 1712($sp)
	ldc1	$f0, 14168($sp)                 # 8-byte Folded Reload
	sdc1	$f0, 1704($sp)
	ldc1	$f0, 14176($sp)                 # 8-byte Folded Reload
	sdc1	$f0, 1696($sp)
	ldc1	$f0, 14184($sp)                 # 8-byte Folded Reload
	sdc1	$f0, 1688($sp)
	ldc1	$f0, 14192($sp)                 # 8-byte Folded Reload
	sdc1	$f0, 1680($sp)
	ldc1	$f0, 14200($sp)                 # 8-byte Folded Reload
	sdc1	$f0, 1672($sp)
	ldc1	$f0, 14208($sp)                 # 8-byte Folded Reload
	sdc1	$f0, 1664($sp)
	ldc1	$f0, 14216($sp)                 # 8-byte Folded Reload
	sdc1	$f0, 1656($sp)
	ldc1	$f0, 14224($sp)                 # 8-byte Folded Reload
	sdc1	$f0, 1648($sp)
	ldc1	$f0, 14232($sp)                 # 8-byte Folded Reload
	sdc1	$f0, 1640($sp)
	ldc1	$f0, 14240($sp)                 # 8-byte Folded Reload
	sdc1	$f0, 1632($sp)
	ldc1	$f0, 14248($sp)                 # 8-byte Folded Reload
	sdc1	$f0, 1624($sp)
	ldc1	$f0, 14256($sp)                 # 8-byte Folded Reload
	sdc1	$f0, 1616($sp)
	ldc1	$f0, 14264($sp)                 # 8-byte Folded Reload
	sdc1	$f0, 1608($sp)
	ldc1	$f0, 14272($sp)                 # 8-byte Folded Reload
	sdc1	$f0, 1600($sp)
	ldc1	$f0, 14280($sp)                 # 8-byte Folded Reload
	sdc1	$f0, 1592($sp)
	ldc1	$f0, 14288($sp)                 # 8-byte Folded Reload
	sdc1	$f0, 1584($sp)
	ldc1	$f0, 14296($sp)                 # 8-byte Folded Reload
	sdc1	$f0, 1576($sp)
	ldc1	$f0, 14304($sp)                 # 8-byte Folded Reload
	sdc1	$f0, 1568($sp)
	ldc1	$f0, 14312($sp)                 # 8-byte Folded Reload
	sdc1	$f0, 1560($sp)
	ldc1	$f0, 14320($sp)                 # 8-byte Folded Reload
	sdc1	$f0, 1552($sp)
	ldc1	$f0, 14328($sp)                 # 8-byte Folded Reload
	sdc1	$f0, 1544($sp)
	ldc1	$f0, 14336($sp)                 # 8-byte Folded Reload
	sdc1	$f0, 1536($sp)
	ldc1	$f0, 14344($sp)                 # 8-byte Folded Reload
	sdc1	$f0, 1528($sp)
	ldc1	$f0, 14352($sp)                 # 8-byte Folded Reload
	sdc1	$f0, 1520($sp)
	ldc1	$f0, 14360($sp)                 # 8-byte Folded Reload
	sdc1	$f0, 1512($sp)
	ldc1	$f0, 14368($sp)                 # 8-byte Folded Reload
	sdc1	$f0, 1504($sp)
	ldc1	$f0, 14376($sp)                 # 8-byte Folded Reload
	sdc1	$f0, 1496($sp)
	ldc1	$f0, 14384($sp)                 # 8-byte Folded Reload
	sdc1	$f0, 1488($sp)
	ldc1	$f0, 14392($sp)                 # 8-byte Folded Reload
	sdc1	$f0, 1480($sp)
	ldc1	$f0, 14400($sp)                 # 8-byte Folded Reload
	sdc1	$f0, 1472($sp)
	ldc1	$f0, 14408($sp)                 # 8-byte Folded Reload
	sdc1	$f0, 1464($sp)
	ldc1	$f0, 14416($sp)                 # 8-byte Folded Reload
	sdc1	$f0, 1456($sp)
	ldc1	$f0, 14424($sp)                 # 8-byte Folded Reload
	sdc1	$f0, 1448($sp)
	ldc1	$f0, 14432($sp)                 # 8-byte Folded Reload
	sdc1	$f0, 1440($sp)
	ldc1	$f0, 14440($sp)                 # 8-byte Folded Reload
	sdc1	$f0, 1432($sp)
	ldc1	$f0, 14448($sp)                 # 8-byte Folded Reload
	sdc1	$f0, 1424($sp)
	ldc1	$f0, 14456($sp)                 # 8-byte Folded Reload
	sdc1	$f0, 1416($sp)
	ldc1	$f0, 14464($sp)                 # 8-byte Folded Reload
	sdc1	$f0, 1408($sp)
	ldc1	$f0, 14472($sp)                 # 8-byte Folded Reload
	sdc1	$f0, 1400($sp)
	ldc1	$f0, 14480($sp)                 # 8-byte Folded Reload
	sdc1	$f0, 1392($sp)
	ldc1	$f0, 14488($sp)                 # 8-byte Folded Reload
	sdc1	$f0, 1384($sp)
	ldc1	$f0, 14496($sp)                 # 8-byte Folded Reload
	sdc1	$f0, 1376($sp)
	ldc1	$f0, 14504($sp)                 # 8-byte Folded Reload
	sdc1	$f0, 1368($sp)
	ldc1	$f0, 14512($sp)                 # 8-byte Folded Reload
	sdc1	$f0, 1360($sp)
	ldc1	$f0, 14520($sp)                 # 8-byte Folded Reload
	sdc1	$f0, 1352($sp)
	ldc1	$f0, 14528($sp)                 # 8-byte Folded Reload
	sdc1	$f0, 1344($sp)
	ldc1	$f0, 14536($sp)                 # 8-byte Folded Reload
	sdc1	$f0, 1336($sp)
	ldc1	$f0, 14544($sp)                 # 8-byte Folded Reload
	sdc1	$f0, 1328($sp)
	ldc1	$f0, 14552($sp)                 # 8-byte Folded Reload
	sdc1	$f0, 1320($sp)
	ldc1	$f0, 14560($sp)                 # 8-byte Folded Reload
	sdc1	$f0, 1312($sp)
	ldc1	$f0, 14568($sp)                 # 8-byte Folded Reload
	sdc1	$f0, 1304($sp)
	ldc1	$f0, 14576($sp)                 # 8-byte Folded Reload
	sdc1	$f0, 1296($sp)
	ldc1	$f0, 14584($sp)                 # 8-byte Folded Reload
	sdc1	$f0, 1288($sp)
	ldc1	$f0, 14592($sp)                 # 8-byte Folded Reload
	sdc1	$f0, 1280($sp)
	ldc1	$f0, 14600($sp)                 # 8-byte Folded Reload
	sdc1	$f0, 1272($sp)
	ldc1	$f0, 14608($sp)                 # 8-byte Folded Reload
	sdc1	$f0, 1264($sp)
	ldc1	$f0, 14616($sp)                 # 8-byte Folded Reload
	sdc1	$f0, 1256($sp)
	ldc1	$f0, 14624($sp)                 # 8-byte Folded Reload
	sdc1	$f0, 1248($sp)
	ldc1	$f0, 14632($sp)                 # 8-byte Folded Reload
	sdc1	$f0, 1240($sp)
	ldc1	$f0, 14640($sp)                 # 8-byte Folded Reload
	sdc1	$f0, 1232($sp)
	ldc1	$f0, 14648($sp)                 # 8-byte Folded Reload
	sdc1	$f0, 1224($sp)
	ldc1	$f0, 14656($sp)                 # 8-byte Folded Reload
	sdc1	$f0, 1216($sp)
	ldc1	$f0, 14664($sp)                 # 8-byte Folded Reload
	sdc1	$f0, 1208($sp)
	ldc1	$f0, 14672($sp)                 # 8-byte Folded Reload
	sdc1	$f0, 1200($sp)
	ldc1	$f0, 14680($sp)                 # 8-byte Folded Reload
	sdc1	$f0, 1192($sp)
	ldc1	$f0, 14688($sp)                 # 8-byte Folded Reload
	sdc1	$f0, 1184($sp)
	ldc1	$f0, 14696($sp)                 # 8-byte Folded Reload
	sdc1	$f0, 1176($sp)
	ldc1	$f0, 14704($sp)                 # 8-byte Folded Reload
	sdc1	$f0, 1168($sp)
	ldc1	$f0, 14712($sp)                 # 8-byte Folded Reload
	sdc1	$f0, 1160($sp)
	ldc1	$f0, 14720($sp)                 # 8-byte Folded Reload
	sdc1	$f0, 1152($sp)
	ldc1	$f0, 14728($sp)                 # 8-byte Folded Reload
	sdc1	$f0, 1144($sp)
	ldc1	$f0, 14736($sp)                 # 8-byte Folded Reload
	sdc1	$f0, 1136($sp)
	ldc1	$f0, 14744($sp)                 # 8-byte Folded Reload
	sdc1	$f0, 1128($sp)
	ldc1	$f0, 14752($sp)                 # 8-byte Folded Reload
	sdc1	$f0, 1120($sp)
	ldc1	$f0, 14760($sp)                 # 8-byte Folded Reload
	sdc1	$f0, 1112($sp)
	ldc1	$f0, 14768($sp)                 # 8-byte Folded Reload
	sdc1	$f0, 1104($sp)
	ldc1	$f0, 14776($sp)                 # 8-byte Folded Reload
	sdc1	$f0, 1096($sp)
	ldc1	$f0, 14784($sp)                 # 8-byte Folded Reload
	sdc1	$f0, 1088($sp)
	ldc1	$f0, 14792($sp)                 # 8-byte Folded Reload
	sdc1	$f0, 1080($sp)
	ldc1	$f0, 14800($sp)                 # 8-byte Folded Reload
	sdc1	$f0, 1072($sp)
	ldc1	$f0, 14808($sp)                 # 8-byte Folded Reload
	sdc1	$f0, 1064($sp)
	ldc1	$f0, 14816($sp)                 # 8-byte Folded Reload
	sdc1	$f0, 1056($sp)
	ldc1	$f0, 14824($sp)                 # 8-byte Folded Reload
	sdc1	$f0, 1048($sp)
	ldc1	$f0, 14832($sp)                 # 8-byte Folded Reload
	sdc1	$f0, 1040($sp)
	ldc1	$f0, 14840($sp)                 # 8-byte Folded Reload
	sdc1	$f0, 1032($sp)
	ldc1	$f0, 14848($sp)                 # 8-byte Folded Reload
	sdc1	$f0, 1024($sp)
	ldc1	$f0, 14856($sp)                 # 8-byte Folded Reload
	sdc1	$f0, 1016($sp)
	ldc1	$f0, 14864($sp)                 # 8-byte Folded Reload
	sdc1	$f0, 1008($sp)
	ldc1	$f0, 14872($sp)                 # 8-byte Folded Reload
	sdc1	$f0, 1000($sp)
	ldc1	$f0, 14880($sp)                 # 8-byte Folded Reload
	sdc1	$f0, 992($sp)
	ldc1	$f0, 14888($sp)                 # 8-byte Folded Reload
	sdc1	$f0, 984($sp)
	ldc1	$f0, 14896($sp)                 # 8-byte Folded Reload
	sdc1	$f0, 976($sp)
	ldc1	$f0, 14904($sp)                 # 8-byte Folded Reload
	sdc1	$f0, 968($sp)
	ldc1	$f0, 14912($sp)                 # 8-byte Folded Reload
	sdc1	$f0, 960($sp)
	ldc1	$f0, 14920($sp)                 # 8-byte Folded Reload
	sdc1	$f0, 952($sp)
	ldc1	$f0, 14928($sp)                 # 8-byte Folded Reload
	sdc1	$f0, 944($sp)
	ldc1	$f0, 14936($sp)                 # 8-byte Folded Reload
	sdc1	$f0, 936($sp)
	ldc1	$f0, 14944($sp)                 # 8-byte Folded Reload
	sdc1	$f0, 928($sp)
	ldc1	$f0, 14952($sp)                 # 8-byte Folded Reload
	sdc1	$f0, 920($sp)
	ldc1	$f0, 14960($sp)                 # 8-byte Folded Reload
	sdc1	$f0, 912($sp)
	ldc1	$f0, 14968($sp)                 # 8-byte Folded Reload
	sdc1	$f0, 904($sp)
	ldc1	$f0, 14976($sp)                 # 8-byte Folded Reload
	sdc1	$f0, 896($sp)
	ldc1	$f0, 14984($sp)                 # 8-byte Folded Reload
	sdc1	$f0, 888($sp)
	ldc1	$f0, 14992($sp)                 # 8-byte Folded Reload
	sdc1	$f0, 880($sp)
	ldc1	$f0, 15000($sp)                 # 8-byte Folded Reload
	sdc1	$f0, 872($sp)
	ldc1	$f0, 15008($sp)                 # 8-byte Folded Reload
	sdc1	$f0, 864($sp)
	ldc1	$f0, 15016($sp)                 # 8-byte Folded Reload
	sdc1	$f0, 856($sp)
	ldc1	$f0, 15024($sp)                 # 8-byte Folded Reload
	sdc1	$f0, 848($sp)
	ldc1	$f0, 15032($sp)                 # 8-byte Folded Reload
	sdc1	$f0, 840($sp)
	ldc1	$f0, 15040($sp)                 # 8-byte Folded Reload
	sdc1	$f0, 832($sp)
	ldc1	$f0, 15048($sp)                 # 8-byte Folded Reload
	sdc1	$f0, 824($sp)
	ldc1	$f0, 15056($sp)                 # 8-byte Folded Reload
	sdc1	$f0, 816($sp)
	ldc1	$f0, 15064($sp)                 # 8-byte Folded Reload
	sdc1	$f0, 808($sp)
	ldc1	$f0, 15072($sp)                 # 8-byte Folded Reload
	sdc1	$f0, 800($sp)
	ldc1	$f0, 15080($sp)                 # 8-byte Folded Reload
	sdc1	$f0, 792($sp)
	ldc1	$f0, 15088($sp)                 # 8-byte Folded Reload
	sdc1	$f0, 784($sp)
	ldc1	$f0, 15096($sp)                 # 8-byte Folded Reload
	sdc1	$f0, 776($sp)
	ldc1	$f0, 15104($sp)                 # 8-byte Folded Reload
	sdc1	$f0, 768($sp)
	ldc1	$f0, 15112($sp)                 # 8-byte Folded Reload
	sdc1	$f0, 760($sp)
	ldc1	$f0, 15120($sp)                 # 8-byte Folded Reload
	sdc1	$f0, 752($sp)
	ldc1	$f0, 15128($sp)                 # 8-byte Folded Reload
	sdc1	$f0, 744($sp)
	ldc1	$f0, 15136($sp)                 # 8-byte Folded Reload
	sdc1	$f0, 736($sp)
	ldc1	$f0, 15144($sp)                 # 8-byte Folded Reload
	sdc1	$f0, 728($sp)
	ldc1	$f0, 15152($sp)                 # 8-byte Folded Reload
	sdc1	$f0, 720($sp)
	ldc1	$f0, 15160($sp)                 # 8-byte Folded Reload
	sdc1	$f0, 712($sp)
	ldc1	$f0, 15168($sp)                 # 8-byte Folded Reload
	sdc1	$f0, 704($sp)
	ldc1	$f0, 15176($sp)                 # 8-byte Folded Reload
	sdc1	$f0, 696($sp)
	ldc1	$f0, 15184($sp)                 # 8-byte Folded Reload
	sdc1	$f0, 688($sp)
	ldc1	$f0, 15192($sp)                 # 8-byte Folded Reload
	sdc1	$f0, 680($sp)
	ldc1	$f0, 15200($sp)                 # 8-byte Folded Reload
	sdc1	$f0, 672($sp)
	ldc1	$f0, 15208($sp)                 # 8-byte Folded Reload
	sdc1	$f0, 664($sp)
	ldc1	$f0, 15216($sp)                 # 8-byte Folded Reload
	sdc1	$f0, 656($sp)
	ldc1	$f0, 15224($sp)                 # 8-byte Folded Reload
	sdc1	$f0, 648($sp)
	ldc1	$f0, 15232($sp)                 # 8-byte Folded Reload
	sdc1	$f0, 640($sp)
	ldc1	$f0, 15240($sp)                 # 8-byte Folded Reload
	sdc1	$f0, 632($sp)
	ldc1	$f0, 15248($sp)                 # 8-byte Folded Reload
	sdc1	$f0, 624($sp)
	ldc1	$f0, 15256($sp)                 # 8-byte Folded Reload
	sdc1	$f0, 616($sp)
	ldc1	$f0, 15264($sp)                 # 8-byte Folded Reload
	sdc1	$f0, 608($sp)
	ldc1	$f0, 15272($sp)                 # 8-byte Folded Reload
	sdc1	$f0, 600($sp)
	ldc1	$f0, 15280($sp)                 # 8-byte Folded Reload
	sdc1	$f0, 592($sp)
	ldc1	$f0, 15288($sp)                 # 8-byte Folded Reload
	sdc1	$f0, 584($sp)
	ldc1	$f0, 15296($sp)                 # 8-byte Folded Reload
	sdc1	$f0, 576($sp)
	ldc1	$f0, 15304($sp)                 # 8-byte Folded Reload
	sdc1	$f0, 568($sp)
	ldc1	$f0, 15312($sp)                 # 8-byte Folded Reload
	sdc1	$f0, 560($sp)
	ldc1	$f0, 15320($sp)                 # 8-byte Folded Reload
	sdc1	$f0, 552($sp)
	ldc1	$f0, 15328($sp)                 # 8-byte Folded Reload
	sdc1	$f0, 544($sp)
	ldc1	$f0, 15336($sp)                 # 8-byte Folded Reload
	sdc1	$f0, 536($sp)
	ldc1	$f0, 15344($sp)                 # 8-byte Folded Reload
	sdc1	$f0, 528($sp)
	ldc1	$f0, 15352($sp)                 # 8-byte Folded Reload
	sdc1	$f0, 520($sp)
	ldc1	$f0, 15360($sp)                 # 8-byte Folded Reload
	sdc1	$f0, 512($sp)
	ldc1	$f0, 15368($sp)                 # 8-byte Folded Reload
	sdc1	$f0, 504($sp)
	ldc1	$f0, 15376($sp)                 # 8-byte Folded Reload
	sdc1	$f0, 496($sp)
	ldc1	$f0, 15384($sp)                 # 8-byte Folded Reload
	sdc1	$f0, 488($sp)
	ldc1	$f0, 15392($sp)                 # 8-byte Folded Reload
	sdc1	$f0, 480($sp)
	ldc1	$f0, 15400($sp)                 # 8-byte Folded Reload
	sdc1	$f0, 472($sp)
	ldc1	$f0, 15408($sp)                 # 8-byte Folded Reload
	sdc1	$f0, 464($sp)
	ldc1	$f0, 15416($sp)                 # 8-byte Folded Reload
	sdc1	$f0, 456($sp)
	ldc1	$f0, 15424($sp)                 # 8-byte Folded Reload
	sdc1	$f0, 448($sp)
	ldc1	$f0, 15432($sp)                 # 8-byte Folded Reload
	sdc1	$f0, 440($sp)
	ldc1	$f0, 15440($sp)                 # 8-byte Folded Reload
	sdc1	$f0, 432($sp)
	ldc1	$f0, 15448($sp)                 # 8-byte Folded Reload
	sdc1	$f0, 424($sp)
	ldc1	$f0, 15456($sp)                 # 8-byte Folded Reload
	sdc1	$f0, 416($sp)
	ldc1	$f0, 15464($sp)                 # 8-byte Folded Reload
	sdc1	$f0, 408($sp)
	ldc1	$f0, 15472($sp)                 # 8-byte Folded Reload
	sdc1	$f0, 400($sp)
	ldc1	$f0, 15480($sp)                 # 8-byte Folded Reload
	sdc1	$f0, 392($sp)
	ldc1	$f0, 15488($sp)                 # 8-byte Folded Reload
	sdc1	$f0, 384($sp)
	ldc1	$f0, 15496($sp)                 # 8-byte Folded Reload
	sdc1	$f0, 376($sp)
	ldc1	$f0, 15504($sp)                 # 8-byte Folded Reload
	sdc1	$f0, 368($sp)
	ldc1	$f0, 15512($sp)                 # 8-byte Folded Reload
	sdc1	$f0, 360($sp)
	ldc1	$f0, 15520($sp)                 # 8-byte Folded Reload
	sdc1	$f0, 352($sp)
	ldc1	$f0, 15528($sp)                 # 8-byte Folded Reload
	sdc1	$f0, 344($sp)
	ldc1	$f0, 15536($sp)                 # 8-byte Folded Reload
	sdc1	$f0, 336($sp)
	ldc1	$f0, 15544($sp)                 # 8-byte Folded Reload
	sdc1	$f0, 328($sp)
	ldc1	$f0, 15552($sp)                 # 8-byte Folded Reload
	sdc1	$f0, 320($sp)
	ldc1	$f0, 15560($sp)                 # 8-byte Folded Reload
	sdc1	$f0, 312($sp)
	ldc1	$f0, 15568($sp)                 # 8-byte Folded Reload
	sdc1	$f0, 304($sp)
	ldc1	$f0, 15576($sp)                 # 8-byte Folded Reload
	sdc1	$f0, 296($sp)
	ldc1	$f0, 15584($sp)                 # 8-byte Folded Reload
	sdc1	$f0, 288($sp)
	ldc1	$f0, 15592($sp)                 # 8-byte Folded Reload
	sdc1	$f0, 280($sp)
	ldc1	$f0, 15600($sp)                 # 8-byte Folded Reload
	sdc1	$f0, 272($sp)
	ldc1	$f0, 15608($sp)                 # 8-byte Folded Reload
	sdc1	$f0, 264($sp)
	ldc1	$f0, 15616($sp)                 # 8-byte Folded Reload
	sdc1	$f0, 256($sp)
	ldc1	$f0, 15624($sp)                 # 8-byte Folded Reload
	sdc1	$f0, 248($sp)
	ldc1	$f0, 15632($sp)                 # 8-byte Folded Reload
	sdc1	$f0, 240($sp)
	ldc1	$f0, 15640($sp)                 # 8-byte Folded Reload
	sdc1	$f0, 232($sp)
	ldc1	$f0, 15648($sp)                 # 8-byte Folded Reload
	sdc1	$f0, 224($sp)
	ldc1	$f0, 15656($sp)                 # 8-byte Folded Reload
	sdc1	$f0, 216($sp)
	ldc1	$f0, 15664($sp)                 # 8-byte Folded Reload
	sdc1	$f0, 208($sp)
	ldc1	$f0, 15672($sp)                 # 8-byte Folded Reload
	sdc1	$f0, 200($sp)
	ldc1	$f0, 15680($sp)                 # 8-byte Folded Reload
	sdc1	$f0, 192($sp)
	ldc1	$f0, 15688($sp)                 # 8-byte Folded Reload
	sdc1	$f0, 184($sp)
	ldc1	$f0, 15696($sp)                 # 8-byte Folded Reload
	sdc1	$f0, 176($sp)
	ldc1	$f0, 15704($sp)                 # 8-byte Folded Reload
	sdc1	$f0, 168($sp)
	ldc1	$f0, 15712($sp)                 # 8-byte Folded Reload
	sdc1	$f0, 160($sp)
	ldc1	$f0, 15720($sp)                 # 8-byte Folded Reload
	sdc1	$f0, 152($sp)
	ldc1	$f0, 15728($sp)                 # 8-byte Folded Reload
	sdc1	$f0, 144($sp)
	sw	$1, 8000($sp)
	ldc1	$f0, 15736($sp)                 # 8-byte Folded Reload
	sdc1	$f0, 136($sp)
	ldc1	$f0, 15744($sp)                 # 8-byte Folded Reload
	sdc1	$f0, 128($sp)
	ldc1	$f0, 15752($sp)                 # 8-byte Folded Reload
	sdc1	$f0, 120($sp)
	ldc1	$f0, 15760($sp)                 # 8-byte Folded Reload
	sdc1	$f0, 112($sp)
	ldc1	$f0, 15768($sp)                 # 8-byte Folded Reload
	sdc1	$f0, 104($sp)
	ldc1	$f0, 15776($sp)                 # 8-byte Folded Reload
	sdc1	$f0, 96($sp)
	ldc1	$f0, 15784($sp)                 # 8-byte Folded Reload
	sdc1	$f0, 88($sp)
	ldc1	$f0, 15792($sp)                 # 8-byte Folded Reload
	sdc1	$f0, 80($sp)
	ldc1	$f0, 15800($sp)                 # 8-byte Folded Reload
	sdc1	$f0, 72($sp)
	ldc1	$f0, 15808($sp)                 # 8-byte Folded Reload
	sdc1	$f0, 64($sp)
	ldc1	$f0, 15816($sp)                 # 8-byte Folded Reload
	sdc1	$f0, 56($sp)
	ldc1	$f0, 15824($sp)                 # 8-byte Folded Reload
	sdc1	$f0, 48($sp)
	ldc1	$f0, 15832($sp)                 # 8-byte Folded Reload
	sdc1	$f0, 40($sp)
	ldc1	$f0, 15840($sp)                 # 8-byte Folded Reload
	sdc1	$f0, 32($sp)
	ldc1	$f0, 15848($sp)                 # 8-byte Folded Reload
	sdc1	$f0, 24($sp)
	ldc1	$f0, 15856($sp)                 # 8-byte Folded Reload
	jal	get
	sdc1	$f0, 16($sp)
	sdc1	$f0, 15864($sp)
	lw	$1, 0($16)
	addiu	$1, $1, -1
	j	$BB2_3
	sw	$1, 0($16)
$BB2_2:                                 # %else
	lui	$1, %hi($format.9)
	addiu	$4, $1, %lo($format.9)
	lui	$1, %hi($string_tmp_.8)
	jal	printf
	addiu	$5, $1, %lo($string_tmp_.8)
$BB2_3:                                 # %after
	ldc1	$f0, 15864($sp)
	lw	$16, 15872($sp)                 # 4-byte Folded Reload
	lw	$ra, 15876($sp)                 # 4-byte Folded Reload
	ldc1	$f20, 15880($sp)                # 8-byte Folded Reload
	ldc1	$f22, 15888($sp)                # 8-byte Folded Reload
	ldc1	$f24, 15896($sp)                # 8-byte Folded Reload
	ldc1	$f26, 15904($sp)                # 8-byte Folded Reload
	ldc1	$f28, 15912($sp)                # 8-byte Folded Reload
	ldc1	$f30, 15920($sp)                # 8-byte Folded Reload
	jr	$ra
	addiu	$sp, $sp, 15928
	.set	at
	.set	macro
	.set	reorder
	.end	pop
$func_end2:
	.size	pop, ($func_end2)-pop
	.cfi_endproc
                                        # -- End function
	.p2align	2                               # -- Begin function get
	.type	get,@function
	.set	nomicromips
	.set	nomips16
	.ent	get
get:                                    # @get
	.cfi_startproc
	.frame	$sp,15912,$ra
	.mask 	0x00000000,0
	.fmask	0xfff00000,-8
	.set	noreorder
	.set	nomacro
	.set	noat
# %bb.0:                                # %get
	addiu	$sp, $sp, -15912
	.cfi_def_cfa_offset 15912
	sdc1	$f30, 15904($sp)                # 8-byte Folded Spill
	sdc1	$f28, 15896($sp)                # 8-byte Folded Spill
	sdc1	$f26, 15888($sp)                # 8-byte Folded Spill
	sdc1	$f24, 15880($sp)                # 8-byte Folded Spill
	sdc1	$f22, 15872($sp)                # 8-byte Folded Spill
	sdc1	$f20, 15864($sp)                # 8-byte Folded Spill
	.cfi_offset 63, -8
	.cfi_offset 62, -4
	.cfi_offset 61, -16
	.cfi_offset 60, -12
	.cfi_offset 59, -24
	.cfi_offset 58, -20
	.cfi_offset 57, -32
	.cfi_offset 56, -28
	.cfi_offset 55, -40
	.cfi_offset 54, -36
	.cfi_offset 53, -48
	.cfi_offset 52, -44
	ldc1	$f0, 23592($sp)
	sdc1	$f0, 7848($sp)                  # 8-byte Folded Spill
	ldc1	$f0, 23600($sp)
	sdc1	$f0, 7840($sp)                  # 8-byte Folded Spill
	ldc1	$f0, 23608($sp)
	sdc1	$f0, 7832($sp)                  # 8-byte Folded Spill
	ldc1	$f0, 23616($sp)
	sdc1	$f0, 7824($sp)                  # 8-byte Folded Spill
	ldc1	$f0, 23624($sp)
	sdc1	$f0, 7816($sp)                  # 8-byte Folded Spill
	ldc1	$f0, 23632($sp)
	sdc1	$f0, 7808($sp)                  # 8-byte Folded Spill
	ldc1	$f0, 23640($sp)
	sdc1	$f0, 7800($sp)                  # 8-byte Folded Spill
	ldc1	$f0, 23648($sp)
	sdc1	$f0, 7792($sp)                  # 8-byte Folded Spill
	ldc1	$f0, 23656($sp)
	sdc1	$f0, 7784($sp)                  # 8-byte Folded Spill
	ldc1	$f0, 23664($sp)
	sdc1	$f0, 7776($sp)                  # 8-byte Folded Spill
	ldc1	$f0, 23672($sp)
	sdc1	$f0, 7768($sp)                  # 8-byte Folded Spill
	ldc1	$f0, 23680($sp)
	sdc1	$f0, 7760($sp)                  # 8-byte Folded Spill
	ldc1	$f0, 23688($sp)
	sdc1	$f0, 7752($sp)                  # 8-byte Folded Spill
	ldc1	$f0, 23696($sp)
	sdc1	$f0, 7744($sp)                  # 8-byte Folded Spill
	ldc1	$f0, 23704($sp)
	sdc1	$f0, 7736($sp)                  # 8-byte Folded Spill
	ldc1	$f0, 23712($sp)
	sdc1	$f0, 7728($sp)                  # 8-byte Folded Spill
	ldc1	$f0, 23720($sp)
	sdc1	$f0, 7720($sp)                  # 8-byte Folded Spill
	ldc1	$f0, 23728($sp)
	sdc1	$f0, 7712($sp)                  # 8-byte Folded Spill
	ldc1	$f0, 23736($sp)
	sdc1	$f0, 7704($sp)                  # 8-byte Folded Spill
	ldc1	$f0, 23744($sp)
	sdc1	$f0, 7696($sp)                  # 8-byte Folded Spill
	ldc1	$f0, 23752($sp)
	sdc1	$f0, 7688($sp)                  # 8-byte Folded Spill
	ldc1	$f0, 23760($sp)
	sdc1	$f0, 7680($sp)                  # 8-byte Folded Spill
	ldc1	$f0, 23768($sp)
	sdc1	$f0, 7672($sp)                  # 8-byte Folded Spill
	ldc1	$f0, 23776($sp)
	sdc1	$f0, 7664($sp)                  # 8-byte Folded Spill
	ldc1	$f0, 23784($sp)
	sdc1	$f0, 7656($sp)                  # 8-byte Folded Spill
	ldc1	$f0, 23792($sp)
	sdc1	$f0, 7648($sp)                  # 8-byte Folded Spill
	ldc1	$f0, 23800($sp)
	sdc1	$f0, 7640($sp)                  # 8-byte Folded Spill
	ldc1	$f0, 23808($sp)
	sdc1	$f0, 7632($sp)                  # 8-byte Folded Spill
	ldc1	$f0, 23816($sp)
	sdc1	$f0, 7624($sp)                  # 8-byte Folded Spill
	ldc1	$f0, 23824($sp)
	sdc1	$f0, 7616($sp)                  # 8-byte Folded Spill
	ldc1	$f0, 23832($sp)
	sdc1	$f0, 7608($sp)                  # 8-byte Folded Spill
	ldc1	$f0, 23840($sp)
	sdc1	$f0, 7600($sp)                  # 8-byte Folded Spill
	ldc1	$f0, 23848($sp)
	sdc1	$f0, 7592($sp)                  # 8-byte Folded Spill
	ldc1	$f0, 23856($sp)
	sdc1	$f0, 7584($sp)                  # 8-byte Folded Spill
	ldc1	$f0, 23864($sp)
	sdc1	$f0, 7576($sp)                  # 8-byte Folded Spill
	ldc1	$f0, 23872($sp)
	sdc1	$f0, 7568($sp)                  # 8-byte Folded Spill
	ldc1	$f0, 23880($sp)
	sdc1	$f0, 7560($sp)                  # 8-byte Folded Spill
	ldc1	$f0, 23888($sp)
	sdc1	$f0, 7552($sp)                  # 8-byte Folded Spill
	ldc1	$f0, 23896($sp)
	sdc1	$f0, 7544($sp)                  # 8-byte Folded Spill
	ldc1	$f0, 23904($sp)
	sdc1	$f0, 7536($sp)                  # 8-byte Folded Spill
	ldc1	$f0, 23080($sp)
	sdc1	$f0, 7528($sp)                  # 8-byte Folded Spill
	ldc1	$f0, 23088($sp)
	sdc1	$f0, 7520($sp)                  # 8-byte Folded Spill
	ldc1	$f0, 23096($sp)
	sdc1	$f0, 7512($sp)                  # 8-byte Folded Spill
	ldc1	$f0, 23104($sp)
	sdc1	$f0, 7504($sp)                  # 8-byte Folded Spill
	ldc1	$f0, 23112($sp)
	sdc1	$f0, 7496($sp)                  # 8-byte Folded Spill
	ldc1	$f0, 23120($sp)
	sdc1	$f0, 7488($sp)                  # 8-byte Folded Spill
	ldc1	$f0, 23128($sp)
	sdc1	$f0, 7480($sp)                  # 8-byte Folded Spill
	ldc1	$f0, 23136($sp)
	sdc1	$f0, 7472($sp)                  # 8-byte Folded Spill
	ldc1	$f0, 23144($sp)
	sdc1	$f0, 7464($sp)                  # 8-byte Folded Spill
	ldc1	$f0, 23152($sp)
	sdc1	$f0, 7456($sp)                  # 8-byte Folded Spill
	ldc1	$f0, 23160($sp)
	sdc1	$f0, 7448($sp)                  # 8-byte Folded Spill
	ldc1	$f0, 23168($sp)
	sdc1	$f0, 7440($sp)                  # 8-byte Folded Spill
	ldc1	$f0, 23176($sp)
	sdc1	$f0, 7432($sp)                  # 8-byte Folded Spill
	ldc1	$f0, 23184($sp)
	sdc1	$f0, 7424($sp)                  # 8-byte Folded Spill
	ldc1	$f0, 23192($sp)
	sdc1	$f0, 7416($sp)                  # 8-byte Folded Spill
	ldc1	$f0, 23200($sp)
	sdc1	$f0, 7408($sp)                  # 8-byte Folded Spill
	ldc1	$f0, 23208($sp)
	sdc1	$f0, 7400($sp)                  # 8-byte Folded Spill
	ldc1	$f0, 23216($sp)
	sdc1	$f0, 7392($sp)                  # 8-byte Folded Spill
	ldc1	$f0, 23224($sp)
	sdc1	$f0, 7384($sp)                  # 8-byte Folded Spill
	ldc1	$f0, 23232($sp)
	sdc1	$f0, 7376($sp)                  # 8-byte Folded Spill
	ldc1	$f0, 23240($sp)
	sdc1	$f0, 7368($sp)                  # 8-byte Folded Spill
	ldc1	$f0, 23248($sp)
	sdc1	$f0, 7360($sp)                  # 8-byte Folded Spill
	ldc1	$f0, 23256($sp)
	sdc1	$f0, 7352($sp)                  # 8-byte Folded Spill
	ldc1	$f0, 23264($sp)
	sdc1	$f0, 7344($sp)                  # 8-byte Folded Spill
	ldc1	$f0, 23272($sp)
	sdc1	$f0, 7336($sp)                  # 8-byte Folded Spill
	ldc1	$f0, 23280($sp)
	sdc1	$f0, 7328($sp)                  # 8-byte Folded Spill
	ldc1	$f0, 23288($sp)
	sdc1	$f0, 7320($sp)                  # 8-byte Folded Spill
	ldc1	$f0, 23296($sp)
	sdc1	$f0, 7312($sp)                  # 8-byte Folded Spill
	ldc1	$f0, 23304($sp)
	sdc1	$f0, 7304($sp)                  # 8-byte Folded Spill
	ldc1	$f0, 23312($sp)
	sdc1	$f0, 7296($sp)                  # 8-byte Folded Spill
	ldc1	$f0, 23320($sp)
	sdc1	$f0, 7288($sp)                  # 8-byte Folded Spill
	ldc1	$f0, 23328($sp)
	sdc1	$f0, 7280($sp)                  # 8-byte Folded Spill
	ldc1	$f0, 23336($sp)
	sdc1	$f0, 7272($sp)                  # 8-byte Folded Spill
	ldc1	$f0, 23344($sp)
	sdc1	$f0, 7264($sp)                  # 8-byte Folded Spill
	ldc1	$f0, 23352($sp)
	sdc1	$f0, 7256($sp)                  # 8-byte Folded Spill
	ldc1	$f0, 23360($sp)
	sdc1	$f0, 7248($sp)                  # 8-byte Folded Spill
	ldc1	$f0, 23368($sp)
	sdc1	$f0, 7240($sp)                  # 8-byte Folded Spill
	ldc1	$f0, 23376($sp)
	sdc1	$f0, 7232($sp)                  # 8-byte Folded Spill
	ldc1	$f0, 23384($sp)
	sdc1	$f0, 7224($sp)                  # 8-byte Folded Spill
	ldc1	$f0, 23392($sp)
	sdc1	$f0, 7216($sp)                  # 8-byte Folded Spill
	ldc1	$f0, 23400($sp)
	sdc1	$f0, 7208($sp)                  # 8-byte Folded Spill
	ldc1	$f0, 23408($sp)
	sdc1	$f0, 7200($sp)                  # 8-byte Folded Spill
	ldc1	$f0, 23416($sp)
	sdc1	$f0, 7192($sp)                  # 8-byte Folded Spill
	ldc1	$f0, 23424($sp)
	sdc1	$f0, 7184($sp)                  # 8-byte Folded Spill
	ldc1	$f0, 23432($sp)
	sdc1	$f0, 7176($sp)                  # 8-byte Folded Spill
	ldc1	$f0, 23440($sp)
	sdc1	$f0, 7168($sp)                  # 8-byte Folded Spill
	ldc1	$f0, 23448($sp)
	sdc1	$f0, 7160($sp)                  # 8-byte Folded Spill
	ldc1	$f0, 23456($sp)
	sdc1	$f0, 7152($sp)                  # 8-byte Folded Spill
	ldc1	$f0, 23464($sp)
	sdc1	$f0, 7144($sp)                  # 8-byte Folded Spill
	ldc1	$f0, 23472($sp)
	sdc1	$f0, 7136($sp)                  # 8-byte Folded Spill
	ldc1	$f0, 23480($sp)
	sdc1	$f0, 7128($sp)                  # 8-byte Folded Spill
	ldc1	$f0, 23488($sp)
	sdc1	$f0, 7120($sp)                  # 8-byte Folded Spill
	ldc1	$f0, 23496($sp)
	sdc1	$f0, 7112($sp)                  # 8-byte Folded Spill
	ldc1	$f0, 23504($sp)
	sdc1	$f0, 7104($sp)                  # 8-byte Folded Spill
	ldc1	$f0, 23512($sp)
	sdc1	$f0, 7096($sp)                  # 8-byte Folded Spill
	ldc1	$f0, 23520($sp)
	sdc1	$f0, 7088($sp)                  # 8-byte Folded Spill
	ldc1	$f0, 23528($sp)
	sdc1	$f0, 7080($sp)                  # 8-byte Folded Spill
	ldc1	$f0, 23536($sp)
	sdc1	$f0, 7072($sp)                  # 8-byte Folded Spill
	ldc1	$f0, 23544($sp)
	sdc1	$f0, 7064($sp)                  # 8-byte Folded Spill
	ldc1	$f0, 23552($sp)
	sdc1	$f0, 7056($sp)                  # 8-byte Folded Spill
	ldc1	$f0, 23560($sp)
	sdc1	$f0, 7048($sp)                  # 8-byte Folded Spill
	ldc1	$f0, 23568($sp)
	sdc1	$f0, 7040($sp)                  # 8-byte Folded Spill
	ldc1	$f0, 23576($sp)
	sdc1	$f0, 7032($sp)                  # 8-byte Folded Spill
	ldc1	$f0, 23584($sp)
	sdc1	$f0, 7024($sp)                  # 8-byte Folded Spill
	ldc1	$f0, 22568($sp)
	sdc1	$f0, 7016($sp)                  # 8-byte Folded Spill
	ldc1	$f0, 22576($sp)
	sdc1	$f0, 7008($sp)                  # 8-byte Folded Spill
	ldc1	$f0, 22584($sp)
	sdc1	$f0, 7000($sp)                  # 8-byte Folded Spill
	ldc1	$f0, 22592($sp)
	sdc1	$f0, 6992($sp)                  # 8-byte Folded Spill
	ldc1	$f0, 22600($sp)
	sdc1	$f0, 6984($sp)                  # 8-byte Folded Spill
	ldc1	$f0, 22608($sp)
	sdc1	$f0, 6976($sp)                  # 8-byte Folded Spill
	ldc1	$f0, 22616($sp)
	sdc1	$f0, 6968($sp)                  # 8-byte Folded Spill
	ldc1	$f0, 22624($sp)
	sdc1	$f0, 6960($sp)                  # 8-byte Folded Spill
	ldc1	$f0, 22632($sp)
	sdc1	$f0, 6952($sp)                  # 8-byte Folded Spill
	ldc1	$f0, 22640($sp)
	sdc1	$f0, 6944($sp)                  # 8-byte Folded Spill
	ldc1	$f0, 22648($sp)
	sdc1	$f0, 6936($sp)                  # 8-byte Folded Spill
	ldc1	$f0, 22656($sp)
	sdc1	$f0, 6928($sp)                  # 8-byte Folded Spill
	ldc1	$f0, 22664($sp)
	sdc1	$f0, 6920($sp)                  # 8-byte Folded Spill
	ldc1	$f0, 22672($sp)
	sdc1	$f0, 6912($sp)                  # 8-byte Folded Spill
	ldc1	$f0, 22680($sp)
	sdc1	$f0, 6904($sp)                  # 8-byte Folded Spill
	ldc1	$f0, 22688($sp)
	sdc1	$f0, 6896($sp)                  # 8-byte Folded Spill
	ldc1	$f0, 22696($sp)
	sdc1	$f0, 6888($sp)                  # 8-byte Folded Spill
	ldc1	$f0, 22704($sp)
	sdc1	$f0, 6880($sp)                  # 8-byte Folded Spill
	ldc1	$f0, 22712($sp)
	sdc1	$f0, 6872($sp)                  # 8-byte Folded Spill
	ldc1	$f0, 22720($sp)
	sdc1	$f0, 6864($sp)                  # 8-byte Folded Spill
	ldc1	$f0, 22728($sp)
	sdc1	$f0, 6856($sp)                  # 8-byte Folded Spill
	ldc1	$f0, 22736($sp)
	sdc1	$f0, 6848($sp)                  # 8-byte Folded Spill
	ldc1	$f0, 22744($sp)
	sdc1	$f0, 6840($sp)                  # 8-byte Folded Spill
	ldc1	$f0, 22752($sp)
	sdc1	$f0, 6832($sp)                  # 8-byte Folded Spill
	ldc1	$f0, 22760($sp)
	sdc1	$f0, 6824($sp)                  # 8-byte Folded Spill
	ldc1	$f0, 22768($sp)
	sdc1	$f0, 6816($sp)                  # 8-byte Folded Spill
	ldc1	$f0, 22776($sp)
	sdc1	$f0, 6808($sp)                  # 8-byte Folded Spill
	ldc1	$f0, 22784($sp)
	sdc1	$f0, 6800($sp)                  # 8-byte Folded Spill
	ldc1	$f0, 22792($sp)
	sdc1	$f0, 6792($sp)                  # 8-byte Folded Spill
	ldc1	$f0, 22800($sp)
	sdc1	$f0, 6784($sp)                  # 8-byte Folded Spill
	ldc1	$f0, 22808($sp)
	sdc1	$f0, 6776($sp)                  # 8-byte Folded Spill
	ldc1	$f0, 22816($sp)
	sdc1	$f0, 6768($sp)                  # 8-byte Folded Spill
	ldc1	$f0, 22824($sp)
	sdc1	$f0, 6760($sp)                  # 8-byte Folded Spill
	ldc1	$f0, 22832($sp)
	sdc1	$f0, 6752($sp)                  # 8-byte Folded Spill
	ldc1	$f0, 22840($sp)
	sdc1	$f0, 6744($sp)                  # 8-byte Folded Spill
	ldc1	$f0, 22848($sp)
	sdc1	$f0, 6736($sp)                  # 8-byte Folded Spill
	ldc1	$f0, 22856($sp)
	sdc1	$f0, 6728($sp)                  # 8-byte Folded Spill
	ldc1	$f0, 22864($sp)
	sdc1	$f0, 6720($sp)                  # 8-byte Folded Spill
	ldc1	$f0, 22872($sp)
	sdc1	$f0, 6712($sp)                  # 8-byte Folded Spill
	ldc1	$f0, 22880($sp)
	sdc1	$f0, 6704($sp)                  # 8-byte Folded Spill
	ldc1	$f0, 22888($sp)
	sdc1	$f0, 6696($sp)                  # 8-byte Folded Spill
	ldc1	$f0, 22896($sp)
	sdc1	$f0, 6688($sp)                  # 8-byte Folded Spill
	ldc1	$f0, 22904($sp)
	sdc1	$f0, 6680($sp)                  # 8-byte Folded Spill
	ldc1	$f0, 22912($sp)
	sdc1	$f0, 6672($sp)                  # 8-byte Folded Spill
	ldc1	$f0, 22920($sp)
	sdc1	$f0, 6664($sp)                  # 8-byte Folded Spill
	ldc1	$f0, 22928($sp)
	sdc1	$f0, 6656($sp)                  # 8-byte Folded Spill
	ldc1	$f0, 22936($sp)
	sdc1	$f0, 6648($sp)                  # 8-byte Folded Spill
	ldc1	$f0, 22944($sp)
	sdc1	$f0, 6640($sp)                  # 8-byte Folded Spill
	ldc1	$f0, 22952($sp)
	sdc1	$f0, 6632($sp)                  # 8-byte Folded Spill
	ldc1	$f0, 22960($sp)
	sdc1	$f0, 6624($sp)                  # 8-byte Folded Spill
	ldc1	$f0, 22968($sp)
	sdc1	$f0, 6616($sp)                  # 8-byte Folded Spill
	ldc1	$f0, 22976($sp)
	sdc1	$f0, 6608($sp)                  # 8-byte Folded Spill
	ldc1	$f0, 22984($sp)
	sdc1	$f0, 6600($sp)                  # 8-byte Folded Spill
	ldc1	$f0, 22992($sp)
	sdc1	$f0, 6592($sp)                  # 8-byte Folded Spill
	ldc1	$f0, 23000($sp)
	sdc1	$f0, 6584($sp)                  # 8-byte Folded Spill
	ldc1	$f0, 23008($sp)
	sdc1	$f0, 6576($sp)                  # 8-byte Folded Spill
	ldc1	$f0, 23016($sp)
	sdc1	$f0, 6568($sp)                  # 8-byte Folded Spill
	ldc1	$f0, 23024($sp)
	sdc1	$f0, 6560($sp)                  # 8-byte Folded Spill
	ldc1	$f0, 23032($sp)
	sdc1	$f0, 6552($sp)                  # 8-byte Folded Spill
	ldc1	$f0, 23040($sp)
	sdc1	$f0, 6544($sp)                  # 8-byte Folded Spill
	ldc1	$f0, 23048($sp)
	sdc1	$f0, 6536($sp)                  # 8-byte Folded Spill
	ldc1	$f0, 23056($sp)
	sdc1	$f0, 6528($sp)                  # 8-byte Folded Spill
	ldc1	$f0, 23064($sp)
	sdc1	$f0, 6520($sp)                  # 8-byte Folded Spill
	ldc1	$f0, 23072($sp)
	sdc1	$f0, 6512($sp)                  # 8-byte Folded Spill
	ldc1	$f0, 22056($sp)
	sdc1	$f0, 6504($sp)                  # 8-byte Folded Spill
	ldc1	$f0, 22064($sp)
	sdc1	$f0, 6496($sp)                  # 8-byte Folded Spill
	ldc1	$f0, 22072($sp)
	sdc1	$f0, 6488($sp)                  # 8-byte Folded Spill
	ldc1	$f0, 22080($sp)
	sdc1	$f0, 6480($sp)                  # 8-byte Folded Spill
	ldc1	$f0, 22088($sp)
	sdc1	$f0, 6472($sp)                  # 8-byte Folded Spill
	ldc1	$f0, 22096($sp)
	sdc1	$f0, 6464($sp)                  # 8-byte Folded Spill
	ldc1	$f0, 22104($sp)
	sdc1	$f0, 6456($sp)                  # 8-byte Folded Spill
	ldc1	$f0, 22112($sp)
	sdc1	$f0, 6448($sp)                  # 8-byte Folded Spill
	ldc1	$f0, 22120($sp)
	sdc1	$f0, 6440($sp)                  # 8-byte Folded Spill
	ldc1	$f0, 22128($sp)
	sdc1	$f0, 6432($sp)                  # 8-byte Folded Spill
	ldc1	$f0, 22136($sp)
	sdc1	$f0, 6424($sp)                  # 8-byte Folded Spill
	ldc1	$f0, 22144($sp)
	sdc1	$f0, 6416($sp)                  # 8-byte Folded Spill
	ldc1	$f0, 22152($sp)
	sdc1	$f0, 6408($sp)                  # 8-byte Folded Spill
	ldc1	$f0, 22160($sp)
	sdc1	$f0, 6400($sp)                  # 8-byte Folded Spill
	ldc1	$f0, 22168($sp)
	sdc1	$f0, 6392($sp)                  # 8-byte Folded Spill
	ldc1	$f0, 22176($sp)
	sdc1	$f0, 6384($sp)                  # 8-byte Folded Spill
	ldc1	$f0, 22184($sp)
	sdc1	$f0, 6376($sp)                  # 8-byte Folded Spill
	ldc1	$f0, 22192($sp)
	sdc1	$f0, 6368($sp)                  # 8-byte Folded Spill
	ldc1	$f0, 22200($sp)
	sdc1	$f0, 6360($sp)                  # 8-byte Folded Spill
	ldc1	$f0, 22208($sp)
	sdc1	$f0, 6352($sp)                  # 8-byte Folded Spill
	ldc1	$f0, 22216($sp)
	sdc1	$f0, 6344($sp)                  # 8-byte Folded Spill
	ldc1	$f0, 22224($sp)
	sdc1	$f0, 6336($sp)                  # 8-byte Folded Spill
	ldc1	$f0, 22232($sp)
	sdc1	$f0, 6328($sp)                  # 8-byte Folded Spill
	ldc1	$f0, 22240($sp)
	sdc1	$f0, 6320($sp)                  # 8-byte Folded Spill
	ldc1	$f0, 22248($sp)
	sdc1	$f0, 6312($sp)                  # 8-byte Folded Spill
	ldc1	$f0, 22256($sp)
	sdc1	$f0, 6304($sp)                  # 8-byte Folded Spill
	ldc1	$f0, 22264($sp)
	sdc1	$f0, 6296($sp)                  # 8-byte Folded Spill
	ldc1	$f0, 22272($sp)
	sdc1	$f0, 6288($sp)                  # 8-byte Folded Spill
	ldc1	$f0, 22280($sp)
	sdc1	$f0, 6280($sp)                  # 8-byte Folded Spill
	ldc1	$f0, 22288($sp)
	sdc1	$f0, 6272($sp)                  # 8-byte Folded Spill
	ldc1	$f0, 22296($sp)
	sdc1	$f0, 6264($sp)                  # 8-byte Folded Spill
	ldc1	$f0, 22304($sp)
	sdc1	$f0, 6256($sp)                  # 8-byte Folded Spill
	ldc1	$f0, 22312($sp)
	sdc1	$f0, 6248($sp)                  # 8-byte Folded Spill
	ldc1	$f0, 22320($sp)
	sdc1	$f0, 6240($sp)                  # 8-byte Folded Spill
	ldc1	$f0, 22328($sp)
	sdc1	$f0, 6232($sp)                  # 8-byte Folded Spill
	ldc1	$f0, 22336($sp)
	sdc1	$f0, 6224($sp)                  # 8-byte Folded Spill
	ldc1	$f0, 22344($sp)
	sdc1	$f0, 6216($sp)                  # 8-byte Folded Spill
	ldc1	$f0, 22352($sp)
	sdc1	$f0, 6208($sp)                  # 8-byte Folded Spill
	ldc1	$f0, 22360($sp)
	sdc1	$f0, 6200($sp)                  # 8-byte Folded Spill
	ldc1	$f0, 22368($sp)
	sdc1	$f0, 6192($sp)                  # 8-byte Folded Spill
	ldc1	$f0, 22376($sp)
	sdc1	$f0, 6184($sp)                  # 8-byte Folded Spill
	ldc1	$f0, 22384($sp)
	sdc1	$f0, 6176($sp)                  # 8-byte Folded Spill
	ldc1	$f0, 22392($sp)
	sdc1	$f0, 6168($sp)                  # 8-byte Folded Spill
	ldc1	$f0, 22400($sp)
	sdc1	$f0, 6160($sp)                  # 8-byte Folded Spill
	ldc1	$f0, 22408($sp)
	sdc1	$f0, 6152($sp)                  # 8-byte Folded Spill
	ldc1	$f0, 22416($sp)
	sdc1	$f0, 6144($sp)                  # 8-byte Folded Spill
	ldc1	$f0, 22424($sp)
	sdc1	$f0, 6136($sp)                  # 8-byte Folded Spill
	ldc1	$f0, 22432($sp)
	sdc1	$f0, 6128($sp)                  # 8-byte Folded Spill
	ldc1	$f0, 22440($sp)
	sdc1	$f0, 6120($sp)                  # 8-byte Folded Spill
	ldc1	$f0, 22448($sp)
	sdc1	$f0, 6112($sp)                  # 8-byte Folded Spill
	ldc1	$f0, 22456($sp)
	sdc1	$f0, 6104($sp)                  # 8-byte Folded Spill
	ldc1	$f0, 22464($sp)
	sdc1	$f0, 6096($sp)                  # 8-byte Folded Spill
	ldc1	$f0, 22472($sp)
	sdc1	$f0, 6088($sp)                  # 8-byte Folded Spill
	ldc1	$f0, 22480($sp)
	sdc1	$f0, 6080($sp)                  # 8-byte Folded Spill
	ldc1	$f0, 22488($sp)
	sdc1	$f0, 6072($sp)                  # 8-byte Folded Spill
	ldc1	$f0, 22496($sp)
	sdc1	$f0, 6064($sp)                  # 8-byte Folded Spill
	ldc1	$f0, 22504($sp)
	sdc1	$f0, 6056($sp)                  # 8-byte Folded Spill
	ldc1	$f0, 22512($sp)
	sdc1	$f0, 6048($sp)                  # 8-byte Folded Spill
	ldc1	$f0, 22520($sp)
	sdc1	$f0, 6040($sp)                  # 8-byte Folded Spill
	ldc1	$f0, 22528($sp)
	sdc1	$f0, 6032($sp)                  # 8-byte Folded Spill
	ldc1	$f0, 22536($sp)
	sdc1	$f0, 6024($sp)                  # 8-byte Folded Spill
	ldc1	$f0, 22544($sp)
	sdc1	$f0, 6016($sp)                  # 8-byte Folded Spill
	ldc1	$f0, 22552($sp)
	sdc1	$f0, 6008($sp)                  # 8-byte Folded Spill
	ldc1	$f0, 22560($sp)
	sdc1	$f0, 6000($sp)                  # 8-byte Folded Spill
	ldc1	$f0, 21544($sp)
	sdc1	$f0, 5992($sp)                  # 8-byte Folded Spill
	ldc1	$f0, 21552($sp)
	sdc1	$f0, 5984($sp)                  # 8-byte Folded Spill
	ldc1	$f0, 21560($sp)
	sdc1	$f0, 5976($sp)                  # 8-byte Folded Spill
	ldc1	$f0, 21568($sp)
	sdc1	$f0, 5968($sp)                  # 8-byte Folded Spill
	ldc1	$f0, 21576($sp)
	sdc1	$f0, 5960($sp)                  # 8-byte Folded Spill
	ldc1	$f0, 21584($sp)
	sdc1	$f0, 5952($sp)                  # 8-byte Folded Spill
	ldc1	$f0, 21592($sp)
	sdc1	$f0, 5944($sp)                  # 8-byte Folded Spill
	ldc1	$f0, 21600($sp)
	sdc1	$f0, 5936($sp)                  # 8-byte Folded Spill
	ldc1	$f0, 21608($sp)
	sdc1	$f0, 5928($sp)                  # 8-byte Folded Spill
	ldc1	$f0, 21616($sp)
	sdc1	$f0, 5920($sp)                  # 8-byte Folded Spill
	ldc1	$f0, 21624($sp)
	sdc1	$f0, 5912($sp)                  # 8-byte Folded Spill
	ldc1	$f0, 21632($sp)
	sdc1	$f0, 5904($sp)                  # 8-byte Folded Spill
	ldc1	$f0, 21640($sp)
	sdc1	$f0, 5896($sp)                  # 8-byte Folded Spill
	ldc1	$f0, 21648($sp)
	sdc1	$f0, 5888($sp)                  # 8-byte Folded Spill
	ldc1	$f0, 21656($sp)
	sdc1	$f0, 5880($sp)                  # 8-byte Folded Spill
	ldc1	$f0, 21664($sp)
	sdc1	$f0, 5872($sp)                  # 8-byte Folded Spill
	ldc1	$f0, 21672($sp)
	sdc1	$f0, 5864($sp)                  # 8-byte Folded Spill
	ldc1	$f0, 21680($sp)
	sdc1	$f0, 5856($sp)                  # 8-byte Folded Spill
	ldc1	$f0, 21688($sp)
	sdc1	$f0, 5848($sp)                  # 8-byte Folded Spill
	ldc1	$f0, 21696($sp)
	sdc1	$f0, 5840($sp)                  # 8-byte Folded Spill
	ldc1	$f0, 21704($sp)
	sdc1	$f0, 5832($sp)                  # 8-byte Folded Spill
	ldc1	$f0, 21712($sp)
	sdc1	$f0, 5824($sp)                  # 8-byte Folded Spill
	ldc1	$f0, 21720($sp)
	sdc1	$f0, 5816($sp)                  # 8-byte Folded Spill
	ldc1	$f0, 21728($sp)
	sdc1	$f0, 5808($sp)                  # 8-byte Folded Spill
	ldc1	$f0, 21736($sp)
	sdc1	$f0, 5800($sp)                  # 8-byte Folded Spill
	ldc1	$f0, 21744($sp)
	sdc1	$f0, 5792($sp)                  # 8-byte Folded Spill
	ldc1	$f0, 21752($sp)
	sdc1	$f0, 5784($sp)                  # 8-byte Folded Spill
	ldc1	$f0, 21760($sp)
	sdc1	$f0, 5776($sp)                  # 8-byte Folded Spill
	ldc1	$f0, 21768($sp)
	sdc1	$f0, 5768($sp)                  # 8-byte Folded Spill
	ldc1	$f0, 21776($sp)
	sdc1	$f0, 5760($sp)                  # 8-byte Folded Spill
	ldc1	$f0, 21784($sp)
	sdc1	$f0, 5752($sp)                  # 8-byte Folded Spill
	ldc1	$f0, 21792($sp)
	sdc1	$f0, 5744($sp)                  # 8-byte Folded Spill
	ldc1	$f0, 21800($sp)
	sdc1	$f0, 5736($sp)                  # 8-byte Folded Spill
	ldc1	$f0, 21808($sp)
	sdc1	$f0, 5728($sp)                  # 8-byte Folded Spill
	ldc1	$f0, 21816($sp)
	sdc1	$f0, 5720($sp)                  # 8-byte Folded Spill
	ldc1	$f0, 21824($sp)
	sdc1	$f0, 5712($sp)                  # 8-byte Folded Spill
	ldc1	$f0, 21832($sp)
	sdc1	$f0, 5704($sp)                  # 8-byte Folded Spill
	ldc1	$f0, 21840($sp)
	sdc1	$f0, 5696($sp)                  # 8-byte Folded Spill
	ldc1	$f0, 21848($sp)
	sdc1	$f0, 5688($sp)                  # 8-byte Folded Spill
	ldc1	$f0, 21856($sp)
	sdc1	$f0, 5680($sp)                  # 8-byte Folded Spill
	ldc1	$f0, 21864($sp)
	sdc1	$f0, 5672($sp)                  # 8-byte Folded Spill
	ldc1	$f0, 21872($sp)
	sdc1	$f0, 5664($sp)                  # 8-byte Folded Spill
	ldc1	$f0, 21880($sp)
	sdc1	$f0, 5656($sp)                  # 8-byte Folded Spill
	ldc1	$f0, 21888($sp)
	sdc1	$f0, 5648($sp)                  # 8-byte Folded Spill
	ldc1	$f0, 21896($sp)
	sdc1	$f0, 5640($sp)                  # 8-byte Folded Spill
	ldc1	$f0, 21904($sp)
	sdc1	$f0, 5632($sp)                  # 8-byte Folded Spill
	ldc1	$f0, 21912($sp)
	sdc1	$f0, 5624($sp)                  # 8-byte Folded Spill
	ldc1	$f0, 21920($sp)
	sdc1	$f0, 5616($sp)                  # 8-byte Folded Spill
	ldc1	$f0, 21928($sp)
	sdc1	$f0, 5608($sp)                  # 8-byte Folded Spill
	ldc1	$f0, 21936($sp)
	sdc1	$f0, 5600($sp)                  # 8-byte Folded Spill
	ldc1	$f0, 21944($sp)
	sdc1	$f0, 5592($sp)                  # 8-byte Folded Spill
	ldc1	$f0, 21952($sp)
	sdc1	$f0, 5584($sp)                  # 8-byte Folded Spill
	ldc1	$f0, 21960($sp)
	sdc1	$f0, 5576($sp)                  # 8-byte Folded Spill
	ldc1	$f0, 21968($sp)
	sdc1	$f0, 5568($sp)                  # 8-byte Folded Spill
	ldc1	$f0, 21976($sp)
	sdc1	$f0, 5560($sp)                  # 8-byte Folded Spill
	ldc1	$f0, 21984($sp)
	sdc1	$f0, 5552($sp)                  # 8-byte Folded Spill
	ldc1	$f0, 21992($sp)
	sdc1	$f0, 5544($sp)                  # 8-byte Folded Spill
	ldc1	$f0, 22000($sp)
	sdc1	$f0, 5536($sp)                  # 8-byte Folded Spill
	ldc1	$f0, 22008($sp)
	sdc1	$f0, 5528($sp)                  # 8-byte Folded Spill
	ldc1	$f0, 22016($sp)
	sdc1	$f0, 5520($sp)                  # 8-byte Folded Spill
	ldc1	$f0, 22024($sp)
	sdc1	$f0, 5512($sp)                  # 8-byte Folded Spill
	ldc1	$f0, 22032($sp)
	sdc1	$f0, 5504($sp)                  # 8-byte Folded Spill
	ldc1	$f0, 22040($sp)
	sdc1	$f0, 5496($sp)                  # 8-byte Folded Spill
	ldc1	$f0, 22048($sp)
	sdc1	$f0, 5488($sp)                  # 8-byte Folded Spill
	ldc1	$f0, 21032($sp)
	sdc1	$f0, 5480($sp)                  # 8-byte Folded Spill
	ldc1	$f0, 21040($sp)
	sdc1	$f0, 5472($sp)                  # 8-byte Folded Spill
	ldc1	$f0, 21048($sp)
	sdc1	$f0, 5464($sp)                  # 8-byte Folded Spill
	ldc1	$f0, 21056($sp)
	sdc1	$f0, 5456($sp)                  # 8-byte Folded Spill
	ldc1	$f0, 21064($sp)
	sdc1	$f0, 5448($sp)                  # 8-byte Folded Spill
	ldc1	$f0, 21072($sp)
	sdc1	$f0, 5440($sp)                  # 8-byte Folded Spill
	ldc1	$f0, 21080($sp)
	sdc1	$f0, 5432($sp)                  # 8-byte Folded Spill
	ldc1	$f0, 21088($sp)
	sdc1	$f0, 5424($sp)                  # 8-byte Folded Spill
	ldc1	$f0, 21096($sp)
	sdc1	$f0, 5416($sp)                  # 8-byte Folded Spill
	ldc1	$f0, 21104($sp)
	sdc1	$f0, 5408($sp)                  # 8-byte Folded Spill
	ldc1	$f0, 21112($sp)
	sdc1	$f0, 5400($sp)                  # 8-byte Folded Spill
	ldc1	$f0, 21120($sp)
	sdc1	$f0, 5392($sp)                  # 8-byte Folded Spill
	ldc1	$f0, 21128($sp)
	sdc1	$f0, 5384($sp)                  # 8-byte Folded Spill
	ldc1	$f0, 21136($sp)
	sdc1	$f0, 5376($sp)                  # 8-byte Folded Spill
	ldc1	$f0, 21144($sp)
	sdc1	$f0, 5368($sp)                  # 8-byte Folded Spill
	ldc1	$f0, 21152($sp)
	sdc1	$f0, 5360($sp)                  # 8-byte Folded Spill
	ldc1	$f0, 21160($sp)
	sdc1	$f0, 5352($sp)                  # 8-byte Folded Spill
	ldc1	$f0, 21168($sp)
	sdc1	$f0, 5344($sp)                  # 8-byte Folded Spill
	ldc1	$f0, 21176($sp)
	sdc1	$f0, 5336($sp)                  # 8-byte Folded Spill
	ldc1	$f0, 21184($sp)
	sdc1	$f0, 5328($sp)                  # 8-byte Folded Spill
	ldc1	$f0, 21192($sp)
	sdc1	$f0, 5320($sp)                  # 8-byte Folded Spill
	ldc1	$f0, 21200($sp)
	sdc1	$f0, 5312($sp)                  # 8-byte Folded Spill
	ldc1	$f0, 21208($sp)
	sdc1	$f0, 5304($sp)                  # 8-byte Folded Spill
	ldc1	$f0, 21216($sp)
	sdc1	$f0, 5296($sp)                  # 8-byte Folded Spill
	ldc1	$f0, 21224($sp)
	sdc1	$f0, 5288($sp)                  # 8-byte Folded Spill
	ldc1	$f0, 21232($sp)
	sdc1	$f0, 5280($sp)                  # 8-byte Folded Spill
	ldc1	$f0, 21240($sp)
	sdc1	$f0, 5272($sp)                  # 8-byte Folded Spill
	ldc1	$f0, 21248($sp)
	sdc1	$f0, 5264($sp)                  # 8-byte Folded Spill
	ldc1	$f0, 21256($sp)
	sdc1	$f0, 5256($sp)                  # 8-byte Folded Spill
	ldc1	$f0, 21264($sp)
	sdc1	$f0, 5248($sp)                  # 8-byte Folded Spill
	ldc1	$f0, 21272($sp)
	sdc1	$f0, 5240($sp)                  # 8-byte Folded Spill
	ldc1	$f0, 21280($sp)
	sdc1	$f0, 5232($sp)                  # 8-byte Folded Spill
	ldc1	$f0, 21288($sp)
	sdc1	$f0, 5224($sp)                  # 8-byte Folded Spill
	ldc1	$f0, 21296($sp)
	sdc1	$f0, 5216($sp)                  # 8-byte Folded Spill
	ldc1	$f0, 21304($sp)
	sdc1	$f0, 5208($sp)                  # 8-byte Folded Spill
	ldc1	$f0, 21312($sp)
	sdc1	$f0, 5200($sp)                  # 8-byte Folded Spill
	ldc1	$f0, 21320($sp)
	sdc1	$f0, 5192($sp)                  # 8-byte Folded Spill
	ldc1	$f0, 21328($sp)
	sdc1	$f0, 5184($sp)                  # 8-byte Folded Spill
	ldc1	$f0, 21336($sp)
	sdc1	$f0, 5176($sp)                  # 8-byte Folded Spill
	ldc1	$f0, 21344($sp)
	sdc1	$f0, 5168($sp)                  # 8-byte Folded Spill
	ldc1	$f0, 21352($sp)
	sdc1	$f0, 5160($sp)                  # 8-byte Folded Spill
	ldc1	$f0, 21360($sp)
	sdc1	$f0, 5152($sp)                  # 8-byte Folded Spill
	ldc1	$f0, 21368($sp)
	sdc1	$f0, 5144($sp)                  # 8-byte Folded Spill
	ldc1	$f0, 21376($sp)
	sdc1	$f0, 5136($sp)                  # 8-byte Folded Spill
	ldc1	$f0, 21384($sp)
	sdc1	$f0, 5128($sp)                  # 8-byte Folded Spill
	ldc1	$f0, 21392($sp)
	sdc1	$f0, 5120($sp)                  # 8-byte Folded Spill
	ldc1	$f0, 21400($sp)
	sdc1	$f0, 5112($sp)                  # 8-byte Folded Spill
	ldc1	$f0, 21408($sp)
	sdc1	$f0, 5104($sp)                  # 8-byte Folded Spill
	ldc1	$f0, 21416($sp)
	sdc1	$f0, 5096($sp)                  # 8-byte Folded Spill
	ldc1	$f0, 21424($sp)
	sdc1	$f0, 5088($sp)                  # 8-byte Folded Spill
	ldc1	$f0, 21432($sp)
	sdc1	$f0, 5080($sp)                  # 8-byte Folded Spill
	ldc1	$f0, 21440($sp)
	sdc1	$f0, 5072($sp)                  # 8-byte Folded Spill
	ldc1	$f0, 21448($sp)
	sdc1	$f0, 5064($sp)                  # 8-byte Folded Spill
	ldc1	$f0, 21456($sp)
	sdc1	$f0, 5056($sp)                  # 8-byte Folded Spill
	ldc1	$f0, 21464($sp)
	sdc1	$f0, 5048($sp)                  # 8-byte Folded Spill
	ldc1	$f0, 21472($sp)
	sdc1	$f0, 5040($sp)                  # 8-byte Folded Spill
	ldc1	$f0, 21480($sp)
	sdc1	$f0, 5032($sp)                  # 8-byte Folded Spill
	ldc1	$f0, 21488($sp)
	sdc1	$f0, 5024($sp)                  # 8-byte Folded Spill
	ldc1	$f0, 21496($sp)
	sdc1	$f0, 5016($sp)                  # 8-byte Folded Spill
	ldc1	$f0, 21504($sp)
	sdc1	$f0, 5008($sp)                  # 8-byte Folded Spill
	ldc1	$f0, 21512($sp)
	sdc1	$f0, 5000($sp)                  # 8-byte Folded Spill
	ldc1	$f0, 21520($sp)
	sdc1	$f0, 4992($sp)                  # 8-byte Folded Spill
	ldc1	$f0, 21528($sp)
	sdc1	$f0, 4984($sp)                  # 8-byte Folded Spill
	ldc1	$f0, 21536($sp)
	sdc1	$f0, 4976($sp)                  # 8-byte Folded Spill
	ldc1	$f0, 20520($sp)
	sdc1	$f0, 4968($sp)                  # 8-byte Folded Spill
	ldc1	$f0, 20528($sp)
	sdc1	$f0, 4960($sp)                  # 8-byte Folded Spill
	ldc1	$f0, 20536($sp)
	sdc1	$f0, 4952($sp)                  # 8-byte Folded Spill
	ldc1	$f0, 20544($sp)
	sdc1	$f0, 4944($sp)                  # 8-byte Folded Spill
	ldc1	$f0, 20552($sp)
	sdc1	$f0, 4936($sp)                  # 8-byte Folded Spill
	ldc1	$f0, 20560($sp)
	sdc1	$f0, 4928($sp)                  # 8-byte Folded Spill
	ldc1	$f0, 20568($sp)
	sdc1	$f0, 4920($sp)                  # 8-byte Folded Spill
	ldc1	$f0, 20576($sp)
	sdc1	$f0, 4912($sp)                  # 8-byte Folded Spill
	ldc1	$f0, 20584($sp)
	sdc1	$f0, 4904($sp)                  # 8-byte Folded Spill
	ldc1	$f0, 20592($sp)
	sdc1	$f0, 4896($sp)                  # 8-byte Folded Spill
	ldc1	$f0, 20600($sp)
	sdc1	$f0, 4888($sp)                  # 8-byte Folded Spill
	ldc1	$f0, 20608($sp)
	sdc1	$f0, 4880($sp)                  # 8-byte Folded Spill
	ldc1	$f0, 20616($sp)
	sdc1	$f0, 4872($sp)                  # 8-byte Folded Spill
	ldc1	$f0, 20624($sp)
	sdc1	$f0, 4864($sp)                  # 8-byte Folded Spill
	ldc1	$f0, 20632($sp)
	sdc1	$f0, 4856($sp)                  # 8-byte Folded Spill
	ldc1	$f0, 20640($sp)
	sdc1	$f0, 4848($sp)                  # 8-byte Folded Spill
	ldc1	$f0, 20648($sp)
	sdc1	$f0, 4840($sp)                  # 8-byte Folded Spill
	ldc1	$f0, 20656($sp)
	sdc1	$f0, 4832($sp)                  # 8-byte Folded Spill
	ldc1	$f0, 20664($sp)
	sdc1	$f0, 4824($sp)                  # 8-byte Folded Spill
	ldc1	$f0, 20672($sp)
	sdc1	$f0, 4816($sp)                  # 8-byte Folded Spill
	ldc1	$f0, 20680($sp)
	sdc1	$f0, 4808($sp)                  # 8-byte Folded Spill
	ldc1	$f0, 20688($sp)
	sdc1	$f0, 4800($sp)                  # 8-byte Folded Spill
	ldc1	$f0, 20696($sp)
	sdc1	$f0, 4792($sp)                  # 8-byte Folded Spill
	ldc1	$f0, 20704($sp)
	sdc1	$f0, 4784($sp)                  # 8-byte Folded Spill
	ldc1	$f0, 20712($sp)
	sdc1	$f0, 4776($sp)                  # 8-byte Folded Spill
	ldc1	$f0, 20720($sp)
	sdc1	$f0, 4768($sp)                  # 8-byte Folded Spill
	ldc1	$f0, 20728($sp)
	sdc1	$f0, 4760($sp)                  # 8-byte Folded Spill
	ldc1	$f0, 20736($sp)
	sdc1	$f0, 4752($sp)                  # 8-byte Folded Spill
	ldc1	$f0, 20744($sp)
	sdc1	$f0, 4744($sp)                  # 8-byte Folded Spill
	ldc1	$f0, 20752($sp)
	sdc1	$f0, 4736($sp)                  # 8-byte Folded Spill
	ldc1	$f0, 20760($sp)
	sdc1	$f0, 4728($sp)                  # 8-byte Folded Spill
	ldc1	$f0, 20768($sp)
	sdc1	$f0, 4720($sp)                  # 8-byte Folded Spill
	ldc1	$f0, 20776($sp)
	sdc1	$f0, 4712($sp)                  # 8-byte Folded Spill
	ldc1	$f0, 20784($sp)
	sdc1	$f0, 4704($sp)                  # 8-byte Folded Spill
	ldc1	$f0, 20792($sp)
	sdc1	$f0, 4696($sp)                  # 8-byte Folded Spill
	ldc1	$f0, 20800($sp)
	sdc1	$f0, 4688($sp)                  # 8-byte Folded Spill
	ldc1	$f0, 20808($sp)
	sdc1	$f0, 4680($sp)                  # 8-byte Folded Spill
	ldc1	$f0, 20816($sp)
	sdc1	$f0, 4672($sp)                  # 8-byte Folded Spill
	ldc1	$f0, 20824($sp)
	sdc1	$f0, 4664($sp)                  # 8-byte Folded Spill
	ldc1	$f0, 20832($sp)
	sdc1	$f0, 4656($sp)                  # 8-byte Folded Spill
	ldc1	$f0, 20840($sp)
	sdc1	$f0, 4648($sp)                  # 8-byte Folded Spill
	ldc1	$f0, 20848($sp)
	sdc1	$f0, 4640($sp)                  # 8-byte Folded Spill
	ldc1	$f0, 20856($sp)
	sdc1	$f0, 4632($sp)                  # 8-byte Folded Spill
	ldc1	$f0, 20864($sp)
	sdc1	$f0, 4624($sp)                  # 8-byte Folded Spill
	ldc1	$f0, 20872($sp)
	sdc1	$f0, 4616($sp)                  # 8-byte Folded Spill
	ldc1	$f0, 20880($sp)
	sdc1	$f0, 4608($sp)                  # 8-byte Folded Spill
	ldc1	$f0, 20888($sp)
	sdc1	$f0, 4600($sp)                  # 8-byte Folded Spill
	ldc1	$f0, 20896($sp)
	sdc1	$f0, 4592($sp)                  # 8-byte Folded Spill
	ldc1	$f0, 20904($sp)
	sdc1	$f0, 4584($sp)                  # 8-byte Folded Spill
	ldc1	$f0, 20912($sp)
	sdc1	$f0, 4576($sp)                  # 8-byte Folded Spill
	ldc1	$f0, 20920($sp)
	sdc1	$f0, 4568($sp)                  # 8-byte Folded Spill
	ldc1	$f0, 20928($sp)
	sdc1	$f0, 4560($sp)                  # 8-byte Folded Spill
	ldc1	$f0, 20936($sp)
	sdc1	$f0, 4552($sp)                  # 8-byte Folded Spill
	ldc1	$f0, 20944($sp)
	sdc1	$f0, 4544($sp)                  # 8-byte Folded Spill
	ldc1	$f0, 20952($sp)
	sdc1	$f0, 4536($sp)                  # 8-byte Folded Spill
	ldc1	$f0, 20960($sp)
	sdc1	$f0, 4528($sp)                  # 8-byte Folded Spill
	ldc1	$f0, 20968($sp)
	sdc1	$f0, 4520($sp)                  # 8-byte Folded Spill
	ldc1	$f0, 20976($sp)
	sdc1	$f0, 4512($sp)                  # 8-byte Folded Spill
	ldc1	$f0, 20984($sp)
	sdc1	$f0, 4504($sp)                  # 8-byte Folded Spill
	ldc1	$f0, 20992($sp)
	sdc1	$f0, 4496($sp)                  # 8-byte Folded Spill
	ldc1	$f0, 21000($sp)
	sdc1	$f0, 4488($sp)                  # 8-byte Folded Spill
	ldc1	$f0, 21008($sp)
	sdc1	$f0, 4480($sp)                  # 8-byte Folded Spill
	ldc1	$f0, 21016($sp)
	sdc1	$f0, 4472($sp)                  # 8-byte Folded Spill
	ldc1	$f0, 21024($sp)
	sdc1	$f0, 4464($sp)                  # 8-byte Folded Spill
	ldc1	$f0, 20008($sp)
	sdc1	$f0, 4456($sp)                  # 8-byte Folded Spill
	ldc1	$f0, 20016($sp)
	sdc1	$f0, 4448($sp)                  # 8-byte Folded Spill
	ldc1	$f0, 20024($sp)
	sdc1	$f0, 4440($sp)                  # 8-byte Folded Spill
	ldc1	$f0, 20032($sp)
	sdc1	$f0, 4432($sp)                  # 8-byte Folded Spill
	ldc1	$f0, 20040($sp)
	sdc1	$f0, 4424($sp)                  # 8-byte Folded Spill
	ldc1	$f0, 20048($sp)
	sdc1	$f0, 4416($sp)                  # 8-byte Folded Spill
	ldc1	$f0, 20056($sp)
	sdc1	$f0, 4408($sp)                  # 8-byte Folded Spill
	ldc1	$f0, 20064($sp)
	sdc1	$f0, 4400($sp)                  # 8-byte Folded Spill
	ldc1	$f0, 20072($sp)
	sdc1	$f0, 4392($sp)                  # 8-byte Folded Spill
	ldc1	$f0, 20080($sp)
	sdc1	$f0, 4384($sp)                  # 8-byte Folded Spill
	ldc1	$f0, 20088($sp)
	sdc1	$f0, 4376($sp)                  # 8-byte Folded Spill
	ldc1	$f0, 20096($sp)
	sdc1	$f0, 4368($sp)                  # 8-byte Folded Spill
	ldc1	$f0, 20104($sp)
	sdc1	$f0, 4360($sp)                  # 8-byte Folded Spill
	ldc1	$f0, 20112($sp)
	sdc1	$f0, 4352($sp)                  # 8-byte Folded Spill
	ldc1	$f0, 20120($sp)
	sdc1	$f0, 4344($sp)                  # 8-byte Folded Spill
	ldc1	$f0, 20128($sp)
	sdc1	$f0, 4336($sp)                  # 8-byte Folded Spill
	ldc1	$f0, 20136($sp)
	sdc1	$f0, 4328($sp)                  # 8-byte Folded Spill
	ldc1	$f0, 20144($sp)
	sdc1	$f0, 4320($sp)                  # 8-byte Folded Spill
	ldc1	$f0, 20152($sp)
	sdc1	$f0, 4312($sp)                  # 8-byte Folded Spill
	ldc1	$f0, 20160($sp)
	sdc1	$f0, 4304($sp)                  # 8-byte Folded Spill
	ldc1	$f0, 20168($sp)
	sdc1	$f0, 4296($sp)                  # 8-byte Folded Spill
	ldc1	$f0, 20176($sp)
	sdc1	$f0, 4288($sp)                  # 8-byte Folded Spill
	ldc1	$f0, 20184($sp)
	sdc1	$f0, 4280($sp)                  # 8-byte Folded Spill
	ldc1	$f0, 20192($sp)
	sdc1	$f0, 4272($sp)                  # 8-byte Folded Spill
	ldc1	$f0, 20200($sp)
	sdc1	$f0, 4264($sp)                  # 8-byte Folded Spill
	ldc1	$f0, 20208($sp)
	sdc1	$f0, 4256($sp)                  # 8-byte Folded Spill
	ldc1	$f0, 20216($sp)
	sdc1	$f0, 4248($sp)                  # 8-byte Folded Spill
	ldc1	$f0, 20224($sp)
	sdc1	$f0, 4240($sp)                  # 8-byte Folded Spill
	ldc1	$f0, 20232($sp)
	sdc1	$f0, 4232($sp)                  # 8-byte Folded Spill
	ldc1	$f0, 20240($sp)
	sdc1	$f0, 4224($sp)                  # 8-byte Folded Spill
	ldc1	$f0, 20248($sp)
	sdc1	$f0, 4216($sp)                  # 8-byte Folded Spill
	ldc1	$f0, 20256($sp)
	sdc1	$f0, 4208($sp)                  # 8-byte Folded Spill
	ldc1	$f0, 20264($sp)
	sdc1	$f0, 4200($sp)                  # 8-byte Folded Spill
	ldc1	$f0, 20272($sp)
	sdc1	$f0, 4192($sp)                  # 8-byte Folded Spill
	ldc1	$f0, 20280($sp)
	sdc1	$f0, 4184($sp)                  # 8-byte Folded Spill
	ldc1	$f0, 20288($sp)
	sdc1	$f0, 4176($sp)                  # 8-byte Folded Spill
	ldc1	$f0, 20296($sp)
	sdc1	$f0, 4168($sp)                  # 8-byte Folded Spill
	ldc1	$f0, 20304($sp)
	sdc1	$f0, 4160($sp)                  # 8-byte Folded Spill
	ldc1	$f0, 20312($sp)
	sdc1	$f0, 4152($sp)                  # 8-byte Folded Spill
	ldc1	$f0, 20320($sp)
	sdc1	$f0, 4144($sp)                  # 8-byte Folded Spill
	ldc1	$f0, 20328($sp)
	sdc1	$f0, 4136($sp)                  # 8-byte Folded Spill
	ldc1	$f0, 20336($sp)
	sdc1	$f0, 4128($sp)                  # 8-byte Folded Spill
	ldc1	$f0, 20344($sp)
	sdc1	$f0, 4120($sp)                  # 8-byte Folded Spill
	ldc1	$f0, 20352($sp)
	sdc1	$f0, 4112($sp)                  # 8-byte Folded Spill
	ldc1	$f0, 20360($sp)
	sdc1	$f0, 4104($sp)                  # 8-byte Folded Spill
	ldc1	$f0, 20368($sp)
	sdc1	$f0, 4096($sp)                  # 8-byte Folded Spill
	ldc1	$f0, 20376($sp)
	sdc1	$f0, 4088($sp)                  # 8-byte Folded Spill
	ldc1	$f0, 20384($sp)
	sdc1	$f0, 4080($sp)                  # 8-byte Folded Spill
	ldc1	$f0, 20392($sp)
	sdc1	$f0, 4072($sp)                  # 8-byte Folded Spill
	ldc1	$f0, 20400($sp)
	sdc1	$f0, 4064($sp)                  # 8-byte Folded Spill
	ldc1	$f0, 20408($sp)
	sdc1	$f0, 4056($sp)                  # 8-byte Folded Spill
	ldc1	$f0, 20416($sp)
	sdc1	$f0, 4048($sp)                  # 8-byte Folded Spill
	ldc1	$f0, 20424($sp)
	sdc1	$f0, 4040($sp)                  # 8-byte Folded Spill
	ldc1	$f0, 20432($sp)
	sdc1	$f0, 4032($sp)                  # 8-byte Folded Spill
	ldc1	$f0, 20440($sp)
	sdc1	$f0, 4024($sp)                  # 8-byte Folded Spill
	ldc1	$f0, 20448($sp)
	sdc1	$f0, 4016($sp)                  # 8-byte Folded Spill
	ldc1	$f0, 20456($sp)
	sdc1	$f0, 4008($sp)                  # 8-byte Folded Spill
	ldc1	$f0, 20464($sp)
	sdc1	$f0, 4000($sp)                  # 8-byte Folded Spill
	ldc1	$f0, 20472($sp)
	sdc1	$f0, 3992($sp)                  # 8-byte Folded Spill
	ldc1	$f0, 20480($sp)
	sdc1	$f0, 3984($sp)                  # 8-byte Folded Spill
	ldc1	$f0, 20488($sp)
	sdc1	$f0, 3976($sp)                  # 8-byte Folded Spill
	ldc1	$f0, 20496($sp)
	sdc1	$f0, 3968($sp)                  # 8-byte Folded Spill
	ldc1	$f0, 20504($sp)
	sdc1	$f0, 3960($sp)                  # 8-byte Folded Spill
	ldc1	$f0, 20512($sp)
	sdc1	$f0, 3952($sp)                  # 8-byte Folded Spill
	ldc1	$f0, 19496($sp)
	sdc1	$f0, 3944($sp)                  # 8-byte Folded Spill
	ldc1	$f0, 19504($sp)
	sdc1	$f0, 3936($sp)                  # 8-byte Folded Spill
	ldc1	$f0, 19512($sp)
	sdc1	$f0, 3928($sp)                  # 8-byte Folded Spill
	ldc1	$f0, 19520($sp)
	sdc1	$f0, 3920($sp)                  # 8-byte Folded Spill
	ldc1	$f0, 19528($sp)
	sdc1	$f0, 3912($sp)                  # 8-byte Folded Spill
	ldc1	$f0, 19536($sp)
	sdc1	$f0, 3904($sp)                  # 8-byte Folded Spill
	ldc1	$f0, 19544($sp)
	sdc1	$f0, 3896($sp)                  # 8-byte Folded Spill
	ldc1	$f0, 19552($sp)
	sdc1	$f0, 3888($sp)                  # 8-byte Folded Spill
	ldc1	$f0, 19560($sp)
	sdc1	$f0, 3880($sp)                  # 8-byte Folded Spill
	ldc1	$f0, 19568($sp)
	sdc1	$f0, 3872($sp)                  # 8-byte Folded Spill
	ldc1	$f0, 19576($sp)
	sdc1	$f0, 3864($sp)                  # 8-byte Folded Spill
	ldc1	$f0, 19584($sp)
	sdc1	$f0, 3856($sp)                  # 8-byte Folded Spill
	ldc1	$f0, 19592($sp)
	sdc1	$f0, 3848($sp)                  # 8-byte Folded Spill
	ldc1	$f0, 19600($sp)
	sdc1	$f0, 3840($sp)                  # 8-byte Folded Spill
	ldc1	$f0, 19608($sp)
	sdc1	$f0, 3832($sp)                  # 8-byte Folded Spill
	ldc1	$f0, 19616($sp)
	sdc1	$f0, 3824($sp)                  # 8-byte Folded Spill
	ldc1	$f0, 19624($sp)
	sdc1	$f0, 3816($sp)                  # 8-byte Folded Spill
	ldc1	$f0, 19632($sp)
	sdc1	$f0, 3808($sp)                  # 8-byte Folded Spill
	ldc1	$f0, 19640($sp)
	sdc1	$f0, 3800($sp)                  # 8-byte Folded Spill
	ldc1	$f0, 19648($sp)
	sdc1	$f0, 3792($sp)                  # 8-byte Folded Spill
	ldc1	$f0, 19656($sp)
	sdc1	$f0, 3784($sp)                  # 8-byte Folded Spill
	ldc1	$f0, 19664($sp)
	sdc1	$f0, 3776($sp)                  # 8-byte Folded Spill
	ldc1	$f0, 19672($sp)
	sdc1	$f0, 3768($sp)                  # 8-byte Folded Spill
	ldc1	$f0, 19680($sp)
	sdc1	$f0, 3760($sp)                  # 8-byte Folded Spill
	ldc1	$f0, 19688($sp)
	sdc1	$f0, 3752($sp)                  # 8-byte Folded Spill
	ldc1	$f0, 19696($sp)
	sdc1	$f0, 3744($sp)                  # 8-byte Folded Spill
	ldc1	$f0, 19704($sp)
	sdc1	$f0, 3736($sp)                  # 8-byte Folded Spill
	ldc1	$f0, 19712($sp)
	sdc1	$f0, 3728($sp)                  # 8-byte Folded Spill
	ldc1	$f0, 19720($sp)
	sdc1	$f0, 3720($sp)                  # 8-byte Folded Spill
	ldc1	$f0, 19728($sp)
	sdc1	$f0, 3712($sp)                  # 8-byte Folded Spill
	ldc1	$f0, 19736($sp)
	sdc1	$f0, 3704($sp)                  # 8-byte Folded Spill
	ldc1	$f0, 19744($sp)
	sdc1	$f0, 3696($sp)                  # 8-byte Folded Spill
	ldc1	$f0, 19752($sp)
	sdc1	$f0, 3688($sp)                  # 8-byte Folded Spill
	ldc1	$f0, 19760($sp)
	sdc1	$f0, 3680($sp)                  # 8-byte Folded Spill
	ldc1	$f0, 19768($sp)
	sdc1	$f0, 3672($sp)                  # 8-byte Folded Spill
	ldc1	$f0, 19776($sp)
	sdc1	$f0, 3664($sp)                  # 8-byte Folded Spill
	ldc1	$f0, 19784($sp)
	sdc1	$f0, 3656($sp)                  # 8-byte Folded Spill
	ldc1	$f0, 19792($sp)
	sdc1	$f0, 3648($sp)                  # 8-byte Folded Spill
	ldc1	$f0, 19800($sp)
	sdc1	$f0, 3640($sp)                  # 8-byte Folded Spill
	ldc1	$f0, 19808($sp)
	sdc1	$f0, 3632($sp)                  # 8-byte Folded Spill
	ldc1	$f0, 19816($sp)
	sdc1	$f0, 3624($sp)                  # 8-byte Folded Spill
	ldc1	$f0, 19824($sp)
	sdc1	$f0, 3616($sp)                  # 8-byte Folded Spill
	ldc1	$f0, 19832($sp)
	sdc1	$f0, 3608($sp)                  # 8-byte Folded Spill
	ldc1	$f0, 19840($sp)
	sdc1	$f0, 3600($sp)                  # 8-byte Folded Spill
	ldc1	$f0, 19848($sp)
	sdc1	$f0, 3592($sp)                  # 8-byte Folded Spill
	ldc1	$f0, 19856($sp)
	sdc1	$f0, 3584($sp)                  # 8-byte Folded Spill
	ldc1	$f0, 19864($sp)
	sdc1	$f0, 3576($sp)                  # 8-byte Folded Spill
	ldc1	$f0, 19872($sp)
	sdc1	$f0, 3568($sp)                  # 8-byte Folded Spill
	ldc1	$f0, 19880($sp)
	sdc1	$f0, 3560($sp)                  # 8-byte Folded Spill
	ldc1	$f0, 19888($sp)
	sdc1	$f0, 3552($sp)                  # 8-byte Folded Spill
	ldc1	$f0, 19896($sp)
	sdc1	$f0, 3544($sp)                  # 8-byte Folded Spill
	ldc1	$f0, 19904($sp)
	sdc1	$f0, 3536($sp)                  # 8-byte Folded Spill
	ldc1	$f0, 19912($sp)
	sdc1	$f0, 3528($sp)                  # 8-byte Folded Spill
	ldc1	$f0, 19920($sp)
	sdc1	$f0, 3520($sp)                  # 8-byte Folded Spill
	ldc1	$f0, 19928($sp)
	sdc1	$f0, 3512($sp)                  # 8-byte Folded Spill
	ldc1	$f0, 19936($sp)
	sdc1	$f0, 3504($sp)                  # 8-byte Folded Spill
	ldc1	$f0, 19944($sp)
	sdc1	$f0, 3496($sp)                  # 8-byte Folded Spill
	ldc1	$f0, 19952($sp)
	sdc1	$f0, 3488($sp)                  # 8-byte Folded Spill
	ldc1	$f0, 19960($sp)
	sdc1	$f0, 3480($sp)                  # 8-byte Folded Spill
	ldc1	$f0, 19968($sp)
	sdc1	$f0, 3472($sp)                  # 8-byte Folded Spill
	ldc1	$f0, 19976($sp)
	sdc1	$f0, 3464($sp)                  # 8-byte Folded Spill
	ldc1	$f0, 19984($sp)
	sdc1	$f0, 3456($sp)                  # 8-byte Folded Spill
	ldc1	$f0, 19992($sp)
	sdc1	$f0, 3448($sp)                  # 8-byte Folded Spill
	ldc1	$f0, 20000($sp)
	sdc1	$f0, 3440($sp)                  # 8-byte Folded Spill
	ldc1	$f0, 18984($sp)
	sdc1	$f0, 3432($sp)                  # 8-byte Folded Spill
	ldc1	$f0, 18992($sp)
	sdc1	$f0, 3424($sp)                  # 8-byte Folded Spill
	ldc1	$f0, 19000($sp)
	sdc1	$f0, 3416($sp)                  # 8-byte Folded Spill
	ldc1	$f0, 19008($sp)
	sdc1	$f0, 3408($sp)                  # 8-byte Folded Spill
	ldc1	$f0, 19016($sp)
	sdc1	$f0, 3400($sp)                  # 8-byte Folded Spill
	ldc1	$f0, 19024($sp)
	sdc1	$f0, 3392($sp)                  # 8-byte Folded Spill
	ldc1	$f0, 19032($sp)
	sdc1	$f0, 3384($sp)                  # 8-byte Folded Spill
	ldc1	$f0, 19040($sp)
	sdc1	$f0, 3376($sp)                  # 8-byte Folded Spill
	ldc1	$f0, 19048($sp)
	sdc1	$f0, 3368($sp)                  # 8-byte Folded Spill
	ldc1	$f0, 19056($sp)
	sdc1	$f0, 3360($sp)                  # 8-byte Folded Spill
	ldc1	$f0, 19064($sp)
	sdc1	$f0, 3352($sp)                  # 8-byte Folded Spill
	ldc1	$f0, 19072($sp)
	sdc1	$f0, 3344($sp)                  # 8-byte Folded Spill
	ldc1	$f0, 19080($sp)
	sdc1	$f0, 3336($sp)                  # 8-byte Folded Spill
	ldc1	$f0, 19088($sp)
	sdc1	$f0, 3328($sp)                  # 8-byte Folded Spill
	ldc1	$f0, 19096($sp)
	sdc1	$f0, 3320($sp)                  # 8-byte Folded Spill
	ldc1	$f0, 19104($sp)
	sdc1	$f0, 3312($sp)                  # 8-byte Folded Spill
	ldc1	$f0, 19112($sp)
	sdc1	$f0, 3304($sp)                  # 8-byte Folded Spill
	ldc1	$f0, 19120($sp)
	sdc1	$f0, 3296($sp)                  # 8-byte Folded Spill
	ldc1	$f0, 19128($sp)
	sdc1	$f0, 3288($sp)                  # 8-byte Folded Spill
	ldc1	$f0, 19136($sp)
	sdc1	$f0, 3280($sp)                  # 8-byte Folded Spill
	ldc1	$f0, 19144($sp)
	sdc1	$f0, 3272($sp)                  # 8-byte Folded Spill
	ldc1	$f0, 19152($sp)
	sdc1	$f0, 3264($sp)                  # 8-byte Folded Spill
	ldc1	$f0, 19160($sp)
	sdc1	$f0, 3256($sp)                  # 8-byte Folded Spill
	ldc1	$f0, 19168($sp)
	sdc1	$f0, 3248($sp)                  # 8-byte Folded Spill
	ldc1	$f0, 19176($sp)
	sdc1	$f0, 3240($sp)                  # 8-byte Folded Spill
	ldc1	$f0, 19184($sp)
	sdc1	$f0, 3232($sp)                  # 8-byte Folded Spill
	ldc1	$f0, 19192($sp)
	sdc1	$f0, 3224($sp)                  # 8-byte Folded Spill
	ldc1	$f0, 19200($sp)
	sdc1	$f0, 3216($sp)                  # 8-byte Folded Spill
	ldc1	$f0, 19208($sp)
	sdc1	$f0, 3208($sp)                  # 8-byte Folded Spill
	ldc1	$f0, 19216($sp)
	sdc1	$f0, 3200($sp)                  # 8-byte Folded Spill
	ldc1	$f0, 19224($sp)
	sdc1	$f0, 3192($sp)                  # 8-byte Folded Spill
	ldc1	$f0, 19232($sp)
	sdc1	$f0, 3184($sp)                  # 8-byte Folded Spill
	ldc1	$f0, 19240($sp)
	sdc1	$f0, 3176($sp)                  # 8-byte Folded Spill
	ldc1	$f0, 19248($sp)
	sdc1	$f0, 3168($sp)                  # 8-byte Folded Spill
	ldc1	$f0, 19256($sp)
	sdc1	$f0, 3160($sp)                  # 8-byte Folded Spill
	ldc1	$f0, 19264($sp)
	sdc1	$f0, 3152($sp)                  # 8-byte Folded Spill
	ldc1	$f0, 19272($sp)
	sdc1	$f0, 3144($sp)                  # 8-byte Folded Spill
	ldc1	$f0, 19280($sp)
	sdc1	$f0, 3136($sp)                  # 8-byte Folded Spill
	ldc1	$f0, 19288($sp)
	sdc1	$f0, 3128($sp)                  # 8-byte Folded Spill
	ldc1	$f0, 19296($sp)
	sdc1	$f0, 3120($sp)                  # 8-byte Folded Spill
	ldc1	$f0, 19304($sp)
	sdc1	$f0, 3112($sp)                  # 8-byte Folded Spill
	ldc1	$f0, 19312($sp)
	sdc1	$f0, 3104($sp)                  # 8-byte Folded Spill
	ldc1	$f0, 19320($sp)
	sdc1	$f0, 3096($sp)                  # 8-byte Folded Spill
	ldc1	$f0, 19328($sp)
	sdc1	$f0, 3088($sp)                  # 8-byte Folded Spill
	ldc1	$f0, 19336($sp)
	sdc1	$f0, 3080($sp)                  # 8-byte Folded Spill
	ldc1	$f0, 19344($sp)
	sdc1	$f0, 3072($sp)                  # 8-byte Folded Spill
	ldc1	$f0, 19352($sp)
	sdc1	$f0, 3064($sp)                  # 8-byte Folded Spill
	ldc1	$f0, 19360($sp)
	sdc1	$f0, 3056($sp)                  # 8-byte Folded Spill
	ldc1	$f0, 19368($sp)
	sdc1	$f0, 3048($sp)                  # 8-byte Folded Spill
	ldc1	$f0, 19376($sp)
	sdc1	$f0, 3040($sp)                  # 8-byte Folded Spill
	ldc1	$f0, 19384($sp)
	sdc1	$f0, 3032($sp)                  # 8-byte Folded Spill
	ldc1	$f0, 19392($sp)
	sdc1	$f0, 3024($sp)                  # 8-byte Folded Spill
	ldc1	$f0, 19400($sp)
	sdc1	$f0, 3016($sp)                  # 8-byte Folded Spill
	ldc1	$f0, 19408($sp)
	sdc1	$f0, 3008($sp)                  # 8-byte Folded Spill
	ldc1	$f0, 19416($sp)
	sdc1	$f0, 3000($sp)                  # 8-byte Folded Spill
	ldc1	$f0, 19424($sp)
	sdc1	$f0, 2992($sp)                  # 8-byte Folded Spill
	ldc1	$f0, 19432($sp)
	sdc1	$f0, 2984($sp)                  # 8-byte Folded Spill
	ldc1	$f0, 19440($sp)
	sdc1	$f0, 2976($sp)                  # 8-byte Folded Spill
	ldc1	$f0, 19448($sp)
	sdc1	$f0, 2968($sp)                  # 8-byte Folded Spill
	ldc1	$f0, 19456($sp)
	sdc1	$f0, 2960($sp)                  # 8-byte Folded Spill
	ldc1	$f0, 19464($sp)
	sdc1	$f0, 2952($sp)                  # 8-byte Folded Spill
	ldc1	$f0, 19472($sp)
	sdc1	$f0, 2944($sp)                  # 8-byte Folded Spill
	ldc1	$f0, 19480($sp)
	sdc1	$f0, 2936($sp)                  # 8-byte Folded Spill
	ldc1	$f0, 19488($sp)
	sdc1	$f0, 2928($sp)                  # 8-byte Folded Spill
	ldc1	$f0, 18472($sp)
	sdc1	$f0, 2920($sp)                  # 8-byte Folded Spill
	ldc1	$f0, 18480($sp)
	sdc1	$f0, 2912($sp)                  # 8-byte Folded Spill
	ldc1	$f0, 18488($sp)
	sdc1	$f0, 2904($sp)                  # 8-byte Folded Spill
	ldc1	$f0, 18496($sp)
	sdc1	$f0, 2896($sp)                  # 8-byte Folded Spill
	ldc1	$f0, 18504($sp)
	sdc1	$f0, 2888($sp)                  # 8-byte Folded Spill
	ldc1	$f0, 18512($sp)
	sdc1	$f0, 2880($sp)                  # 8-byte Folded Spill
	ldc1	$f0, 18520($sp)
	sdc1	$f0, 2872($sp)                  # 8-byte Folded Spill
	ldc1	$f0, 18528($sp)
	sdc1	$f0, 2864($sp)                  # 8-byte Folded Spill
	ldc1	$f0, 18536($sp)
	sdc1	$f0, 2856($sp)                  # 8-byte Folded Spill
	ldc1	$f0, 18544($sp)
	sdc1	$f0, 2848($sp)                  # 8-byte Folded Spill
	ldc1	$f0, 18552($sp)
	sdc1	$f0, 2840($sp)                  # 8-byte Folded Spill
	ldc1	$f0, 18560($sp)
	sdc1	$f0, 2832($sp)                  # 8-byte Folded Spill
	ldc1	$f0, 18568($sp)
	sdc1	$f0, 2824($sp)                  # 8-byte Folded Spill
	ldc1	$f0, 18576($sp)
	sdc1	$f0, 2816($sp)                  # 8-byte Folded Spill
	ldc1	$f0, 18584($sp)
	sdc1	$f0, 2808($sp)                  # 8-byte Folded Spill
	ldc1	$f0, 18592($sp)
	sdc1	$f0, 2800($sp)                  # 8-byte Folded Spill
	ldc1	$f0, 18600($sp)
	sdc1	$f0, 2792($sp)                  # 8-byte Folded Spill
	ldc1	$f0, 18608($sp)
	sdc1	$f0, 2784($sp)                  # 8-byte Folded Spill
	ldc1	$f0, 18616($sp)
	sdc1	$f0, 2776($sp)                  # 8-byte Folded Spill
	ldc1	$f0, 18624($sp)
	sdc1	$f0, 2768($sp)                  # 8-byte Folded Spill
	ldc1	$f0, 18632($sp)
	sdc1	$f0, 2760($sp)                  # 8-byte Folded Spill
	ldc1	$f0, 18640($sp)
	sdc1	$f0, 2752($sp)                  # 8-byte Folded Spill
	ldc1	$f0, 18648($sp)
	sdc1	$f0, 2744($sp)                  # 8-byte Folded Spill
	ldc1	$f0, 18656($sp)
	sdc1	$f0, 2736($sp)                  # 8-byte Folded Spill
	ldc1	$f0, 18664($sp)
	sdc1	$f0, 2728($sp)                  # 8-byte Folded Spill
	ldc1	$f0, 18672($sp)
	sdc1	$f0, 2720($sp)                  # 8-byte Folded Spill
	ldc1	$f0, 18680($sp)
	sdc1	$f0, 2712($sp)                  # 8-byte Folded Spill
	ldc1	$f0, 18688($sp)
	sdc1	$f0, 2704($sp)                  # 8-byte Folded Spill
	ldc1	$f0, 18696($sp)
	sdc1	$f0, 2696($sp)                  # 8-byte Folded Spill
	ldc1	$f0, 18704($sp)
	sdc1	$f0, 2688($sp)                  # 8-byte Folded Spill
	ldc1	$f0, 18712($sp)
	sdc1	$f0, 2680($sp)                  # 8-byte Folded Spill
	ldc1	$f0, 18720($sp)
	sdc1	$f0, 2672($sp)                  # 8-byte Folded Spill
	ldc1	$f0, 18728($sp)
	sdc1	$f0, 2664($sp)                  # 8-byte Folded Spill
	ldc1	$f0, 18736($sp)
	sdc1	$f0, 2656($sp)                  # 8-byte Folded Spill
	ldc1	$f0, 18744($sp)
	sdc1	$f0, 2648($sp)                  # 8-byte Folded Spill
	ldc1	$f0, 18752($sp)
	sdc1	$f0, 2640($sp)                  # 8-byte Folded Spill
	ldc1	$f0, 18760($sp)
	sdc1	$f0, 2632($sp)                  # 8-byte Folded Spill
	ldc1	$f0, 18768($sp)
	sdc1	$f0, 2624($sp)                  # 8-byte Folded Spill
	ldc1	$f0, 18776($sp)
	sdc1	$f0, 2616($sp)                  # 8-byte Folded Spill
	ldc1	$f0, 18784($sp)
	sdc1	$f0, 2608($sp)                  # 8-byte Folded Spill
	ldc1	$f0, 18792($sp)
	sdc1	$f0, 2600($sp)                  # 8-byte Folded Spill
	ldc1	$f0, 18800($sp)
	sdc1	$f0, 2592($sp)                  # 8-byte Folded Spill
	ldc1	$f0, 18808($sp)
	sdc1	$f0, 2584($sp)                  # 8-byte Folded Spill
	ldc1	$f0, 18816($sp)
	sdc1	$f0, 2576($sp)                  # 8-byte Folded Spill
	ldc1	$f0, 18824($sp)
	sdc1	$f0, 2568($sp)                  # 8-byte Folded Spill
	ldc1	$f0, 18832($sp)
	sdc1	$f0, 2560($sp)                  # 8-byte Folded Spill
	ldc1	$f0, 18840($sp)
	sdc1	$f0, 2552($sp)                  # 8-byte Folded Spill
	ldc1	$f0, 18848($sp)
	sdc1	$f0, 2544($sp)                  # 8-byte Folded Spill
	ldc1	$f0, 18856($sp)
	sdc1	$f0, 2536($sp)                  # 8-byte Folded Spill
	ldc1	$f0, 18864($sp)
	sdc1	$f0, 2528($sp)                  # 8-byte Folded Spill
	ldc1	$f0, 18872($sp)
	sdc1	$f0, 2520($sp)                  # 8-byte Folded Spill
	ldc1	$f0, 18880($sp)
	sdc1	$f0, 2512($sp)                  # 8-byte Folded Spill
	ldc1	$f0, 18888($sp)
	sdc1	$f0, 2504($sp)                  # 8-byte Folded Spill
	ldc1	$f0, 18896($sp)
	sdc1	$f0, 2496($sp)                  # 8-byte Folded Spill
	ldc1	$f0, 18904($sp)
	sdc1	$f0, 2488($sp)                  # 8-byte Folded Spill
	ldc1	$f0, 18912($sp)
	sdc1	$f0, 2480($sp)                  # 8-byte Folded Spill
	ldc1	$f0, 18920($sp)
	sdc1	$f0, 2472($sp)                  # 8-byte Folded Spill
	ldc1	$f0, 18928($sp)
	sdc1	$f0, 2464($sp)                  # 8-byte Folded Spill
	ldc1	$f0, 18936($sp)
	sdc1	$f0, 2456($sp)                  # 8-byte Folded Spill
	ldc1	$f0, 18944($sp)
	sdc1	$f0, 2448($sp)                  # 8-byte Folded Spill
	ldc1	$f0, 18952($sp)
	sdc1	$f0, 2440($sp)                  # 8-byte Folded Spill
	ldc1	$f0, 18960($sp)
	sdc1	$f0, 2432($sp)                  # 8-byte Folded Spill
	ldc1	$f0, 18968($sp)
	sdc1	$f0, 2424($sp)                  # 8-byte Folded Spill
	ldc1	$f0, 18976($sp)
	sdc1	$f0, 2416($sp)                  # 8-byte Folded Spill
	ldc1	$f0, 17960($sp)
	sdc1	$f0, 2408($sp)                  # 8-byte Folded Spill
	ldc1	$f0, 17968($sp)
	sdc1	$f0, 2400($sp)                  # 8-byte Folded Spill
	ldc1	$f0, 17976($sp)
	sdc1	$f0, 2392($sp)                  # 8-byte Folded Spill
	ldc1	$f0, 17984($sp)
	sdc1	$f0, 2384($sp)                  # 8-byte Folded Spill
	ldc1	$f0, 17992($sp)
	sdc1	$f0, 2376($sp)                  # 8-byte Folded Spill
	ldc1	$f0, 18000($sp)
	sdc1	$f0, 2368($sp)                  # 8-byte Folded Spill
	ldc1	$f0, 18008($sp)
	sdc1	$f0, 2360($sp)                  # 8-byte Folded Spill
	ldc1	$f0, 18016($sp)
	sdc1	$f0, 2352($sp)                  # 8-byte Folded Spill
	ldc1	$f0, 18024($sp)
	sdc1	$f0, 2344($sp)                  # 8-byte Folded Spill
	ldc1	$f0, 18032($sp)
	sdc1	$f0, 2336($sp)                  # 8-byte Folded Spill
	ldc1	$f0, 18040($sp)
	sdc1	$f0, 2328($sp)                  # 8-byte Folded Spill
	ldc1	$f0, 18048($sp)
	sdc1	$f0, 2320($sp)                  # 8-byte Folded Spill
	ldc1	$f0, 18056($sp)
	sdc1	$f0, 2312($sp)                  # 8-byte Folded Spill
	ldc1	$f0, 18064($sp)
	sdc1	$f0, 2304($sp)                  # 8-byte Folded Spill
	ldc1	$f0, 18072($sp)
	sdc1	$f0, 2296($sp)                  # 8-byte Folded Spill
	ldc1	$f0, 18080($sp)
	sdc1	$f0, 2288($sp)                  # 8-byte Folded Spill
	ldc1	$f0, 18088($sp)
	sdc1	$f0, 2280($sp)                  # 8-byte Folded Spill
	ldc1	$f0, 18096($sp)
	sdc1	$f0, 2272($sp)                  # 8-byte Folded Spill
	ldc1	$f0, 18104($sp)
	sdc1	$f0, 2264($sp)                  # 8-byte Folded Spill
	ldc1	$f0, 18112($sp)
	sdc1	$f0, 2256($sp)                  # 8-byte Folded Spill
	ldc1	$f0, 18120($sp)
	sdc1	$f0, 2248($sp)                  # 8-byte Folded Spill
	ldc1	$f0, 18128($sp)
	sdc1	$f0, 2240($sp)                  # 8-byte Folded Spill
	ldc1	$f0, 18136($sp)
	sdc1	$f0, 2232($sp)                  # 8-byte Folded Spill
	ldc1	$f0, 18144($sp)
	sdc1	$f0, 2224($sp)                  # 8-byte Folded Spill
	ldc1	$f0, 18152($sp)
	sdc1	$f0, 2216($sp)                  # 8-byte Folded Spill
	ldc1	$f0, 18160($sp)
	sdc1	$f0, 2208($sp)                  # 8-byte Folded Spill
	ldc1	$f0, 18168($sp)
	sdc1	$f0, 2200($sp)                  # 8-byte Folded Spill
	ldc1	$f0, 18176($sp)
	sdc1	$f0, 2192($sp)                  # 8-byte Folded Spill
	ldc1	$f0, 18184($sp)
	sdc1	$f0, 2184($sp)                  # 8-byte Folded Spill
	ldc1	$f0, 18192($sp)
	sdc1	$f0, 2176($sp)                  # 8-byte Folded Spill
	ldc1	$f0, 18200($sp)
	sdc1	$f0, 2168($sp)                  # 8-byte Folded Spill
	ldc1	$f0, 18208($sp)
	sdc1	$f0, 2160($sp)                  # 8-byte Folded Spill
	ldc1	$f0, 18216($sp)
	sdc1	$f0, 2152($sp)                  # 8-byte Folded Spill
	ldc1	$f0, 18224($sp)
	sdc1	$f0, 2144($sp)                  # 8-byte Folded Spill
	ldc1	$f0, 18232($sp)
	sdc1	$f0, 2136($sp)                  # 8-byte Folded Spill
	ldc1	$f0, 18240($sp)
	sdc1	$f0, 2128($sp)                  # 8-byte Folded Spill
	ldc1	$f0, 18248($sp)
	sdc1	$f0, 2120($sp)                  # 8-byte Folded Spill
	ldc1	$f0, 18256($sp)
	sdc1	$f0, 2112($sp)                  # 8-byte Folded Spill
	ldc1	$f0, 18264($sp)
	sdc1	$f0, 2104($sp)                  # 8-byte Folded Spill
	ldc1	$f0, 18272($sp)
	sdc1	$f0, 2096($sp)                  # 8-byte Folded Spill
	ldc1	$f0, 18280($sp)
	sdc1	$f0, 2088($sp)                  # 8-byte Folded Spill
	ldc1	$f0, 18288($sp)
	sdc1	$f0, 2080($sp)                  # 8-byte Folded Spill
	ldc1	$f0, 18296($sp)
	sdc1	$f0, 2072($sp)                  # 8-byte Folded Spill
	ldc1	$f0, 18304($sp)
	sdc1	$f0, 2064($sp)                  # 8-byte Folded Spill
	ldc1	$f0, 18312($sp)
	sdc1	$f0, 2056($sp)                  # 8-byte Folded Spill
	ldc1	$f0, 18320($sp)
	sdc1	$f0, 2048($sp)                  # 8-byte Folded Spill
	ldc1	$f0, 18328($sp)
	sdc1	$f0, 2040($sp)                  # 8-byte Folded Spill
	ldc1	$f0, 18336($sp)
	sdc1	$f0, 2032($sp)                  # 8-byte Folded Spill
	ldc1	$f0, 18344($sp)
	sdc1	$f0, 2024($sp)                  # 8-byte Folded Spill
	ldc1	$f0, 18352($sp)
	sdc1	$f0, 2016($sp)                  # 8-byte Folded Spill
	ldc1	$f0, 18360($sp)
	sdc1	$f0, 2008($sp)                  # 8-byte Folded Spill
	ldc1	$f0, 18368($sp)
	sdc1	$f0, 2000($sp)                  # 8-byte Folded Spill
	ldc1	$f0, 18376($sp)
	sdc1	$f0, 1992($sp)                  # 8-byte Folded Spill
	ldc1	$f0, 18384($sp)
	sdc1	$f0, 1984($sp)                  # 8-byte Folded Spill
	ldc1	$f0, 18392($sp)
	sdc1	$f0, 1976($sp)                  # 8-byte Folded Spill
	ldc1	$f0, 18400($sp)
	sdc1	$f0, 1968($sp)                  # 8-byte Folded Spill
	ldc1	$f0, 18408($sp)
	sdc1	$f0, 1960($sp)                  # 8-byte Folded Spill
	ldc1	$f0, 18416($sp)
	sdc1	$f0, 1952($sp)                  # 8-byte Folded Spill
	ldc1	$f0, 18424($sp)
	sdc1	$f0, 1944($sp)                  # 8-byte Folded Spill
	ldc1	$f0, 18432($sp)
	sdc1	$f0, 1936($sp)                  # 8-byte Folded Spill
	ldc1	$f0, 18440($sp)
	sdc1	$f0, 1928($sp)                  # 8-byte Folded Spill
	ldc1	$f0, 18448($sp)
	sdc1	$f0, 1920($sp)                  # 8-byte Folded Spill
	ldc1	$f0, 18456($sp)
	sdc1	$f0, 1912($sp)                  # 8-byte Folded Spill
	ldc1	$f0, 18464($sp)
	sdc1	$f0, 1904($sp)                  # 8-byte Folded Spill
	ldc1	$f0, 17448($sp)
	sdc1	$f0, 1896($sp)                  # 8-byte Folded Spill
	ldc1	$f0, 17456($sp)
	sdc1	$f0, 1888($sp)                  # 8-byte Folded Spill
	ldc1	$f0, 17464($sp)
	sdc1	$f0, 1880($sp)                  # 8-byte Folded Spill
	ldc1	$f0, 17472($sp)
	sdc1	$f0, 1872($sp)                  # 8-byte Folded Spill
	ldc1	$f0, 17480($sp)
	sdc1	$f0, 1864($sp)                  # 8-byte Folded Spill
	ldc1	$f0, 17488($sp)
	sdc1	$f0, 1856($sp)                  # 8-byte Folded Spill
	ldc1	$f0, 17496($sp)
	sdc1	$f0, 1848($sp)                  # 8-byte Folded Spill
	ldc1	$f0, 17504($sp)
	sdc1	$f0, 1840($sp)                  # 8-byte Folded Spill
	ldc1	$f0, 17512($sp)
	sdc1	$f0, 1832($sp)                  # 8-byte Folded Spill
	ldc1	$f0, 17520($sp)
	sdc1	$f0, 1824($sp)                  # 8-byte Folded Spill
	ldc1	$f0, 17528($sp)
	sdc1	$f0, 1816($sp)                  # 8-byte Folded Spill
	ldc1	$f0, 17536($sp)
	sdc1	$f0, 1808($sp)                  # 8-byte Folded Spill
	ldc1	$f0, 17544($sp)
	sdc1	$f0, 1800($sp)                  # 8-byte Folded Spill
	ldc1	$f0, 17552($sp)
	sdc1	$f0, 1792($sp)                  # 8-byte Folded Spill
	ldc1	$f0, 17560($sp)
	sdc1	$f0, 1784($sp)                  # 8-byte Folded Spill
	ldc1	$f0, 17568($sp)
	sdc1	$f0, 1776($sp)                  # 8-byte Folded Spill
	ldc1	$f0, 17576($sp)
	sdc1	$f0, 1768($sp)                  # 8-byte Folded Spill
	ldc1	$f0, 17584($sp)
	sdc1	$f0, 1760($sp)                  # 8-byte Folded Spill
	ldc1	$f0, 17592($sp)
	sdc1	$f0, 1752($sp)                  # 8-byte Folded Spill
	ldc1	$f0, 17600($sp)
	sdc1	$f0, 1744($sp)                  # 8-byte Folded Spill
	ldc1	$f0, 17608($sp)
	sdc1	$f0, 1736($sp)                  # 8-byte Folded Spill
	ldc1	$f0, 17616($sp)
	sdc1	$f0, 1728($sp)                  # 8-byte Folded Spill
	ldc1	$f0, 17624($sp)
	sdc1	$f0, 1720($sp)                  # 8-byte Folded Spill
	ldc1	$f0, 17632($sp)
	sdc1	$f0, 1712($sp)                  # 8-byte Folded Spill
	ldc1	$f0, 17640($sp)
	sdc1	$f0, 1704($sp)                  # 8-byte Folded Spill
	ldc1	$f0, 17648($sp)
	sdc1	$f0, 1696($sp)                  # 8-byte Folded Spill
	ldc1	$f0, 17656($sp)
	sdc1	$f0, 1688($sp)                  # 8-byte Folded Spill
	ldc1	$f0, 17664($sp)
	sdc1	$f0, 1680($sp)                  # 8-byte Folded Spill
	ldc1	$f0, 17672($sp)
	sdc1	$f0, 1672($sp)                  # 8-byte Folded Spill
	ldc1	$f0, 17680($sp)
	sdc1	$f0, 1664($sp)                  # 8-byte Folded Spill
	ldc1	$f0, 17688($sp)
	sdc1	$f0, 1656($sp)                  # 8-byte Folded Spill
	ldc1	$f0, 17696($sp)
	sdc1	$f0, 1648($sp)                  # 8-byte Folded Spill
	ldc1	$f0, 17704($sp)
	sdc1	$f0, 1640($sp)                  # 8-byte Folded Spill
	ldc1	$f0, 17712($sp)
	sdc1	$f0, 1632($sp)                  # 8-byte Folded Spill
	ldc1	$f0, 17720($sp)
	sdc1	$f0, 1624($sp)                  # 8-byte Folded Spill
	ldc1	$f0, 17728($sp)
	sdc1	$f0, 1616($sp)                  # 8-byte Folded Spill
	ldc1	$f0, 17736($sp)
	sdc1	$f0, 1608($sp)                  # 8-byte Folded Spill
	ldc1	$f0, 17744($sp)
	sdc1	$f0, 1600($sp)                  # 8-byte Folded Spill
	ldc1	$f0, 17752($sp)
	sdc1	$f0, 1592($sp)                  # 8-byte Folded Spill
	ldc1	$f0, 17760($sp)
	sdc1	$f0, 1584($sp)                  # 8-byte Folded Spill
	ldc1	$f0, 17768($sp)
	sdc1	$f0, 1576($sp)                  # 8-byte Folded Spill
	ldc1	$f0, 17776($sp)
	sdc1	$f0, 1568($sp)                  # 8-byte Folded Spill
	ldc1	$f0, 17784($sp)
	sdc1	$f0, 1560($sp)                  # 8-byte Folded Spill
	ldc1	$f0, 17792($sp)
	sdc1	$f0, 1552($sp)                  # 8-byte Folded Spill
	ldc1	$f0, 17800($sp)
	sdc1	$f0, 1544($sp)                  # 8-byte Folded Spill
	ldc1	$f0, 17808($sp)
	sdc1	$f0, 1536($sp)                  # 8-byte Folded Spill
	ldc1	$f0, 17816($sp)
	sdc1	$f0, 1528($sp)                  # 8-byte Folded Spill
	ldc1	$f0, 17824($sp)
	sdc1	$f0, 1520($sp)                  # 8-byte Folded Spill
	ldc1	$f0, 17832($sp)
	sdc1	$f0, 1512($sp)                  # 8-byte Folded Spill
	ldc1	$f0, 17840($sp)
	sdc1	$f0, 1504($sp)                  # 8-byte Folded Spill
	ldc1	$f0, 17848($sp)
	sdc1	$f0, 1496($sp)                  # 8-byte Folded Spill
	ldc1	$f0, 17856($sp)
	sdc1	$f0, 1488($sp)                  # 8-byte Folded Spill
	ldc1	$f0, 17864($sp)
	sdc1	$f0, 1480($sp)                  # 8-byte Folded Spill
	ldc1	$f0, 17872($sp)
	sdc1	$f0, 1472($sp)                  # 8-byte Folded Spill
	ldc1	$f0, 17880($sp)
	sdc1	$f0, 1464($sp)                  # 8-byte Folded Spill
	ldc1	$f0, 17888($sp)
	sdc1	$f0, 1456($sp)                  # 8-byte Folded Spill
	ldc1	$f0, 17896($sp)
	sdc1	$f0, 1448($sp)                  # 8-byte Folded Spill
	ldc1	$f0, 17904($sp)
	sdc1	$f0, 1440($sp)                  # 8-byte Folded Spill
	ldc1	$f0, 17912($sp)
	sdc1	$f0, 1432($sp)                  # 8-byte Folded Spill
	ldc1	$f0, 17920($sp)
	sdc1	$f0, 1424($sp)                  # 8-byte Folded Spill
	ldc1	$f0, 17928($sp)
	sdc1	$f0, 1416($sp)                  # 8-byte Folded Spill
	ldc1	$f0, 17936($sp)
	sdc1	$f0, 1408($sp)                  # 8-byte Folded Spill
	ldc1	$f0, 17944($sp)
	sdc1	$f0, 1400($sp)                  # 8-byte Folded Spill
	ldc1	$f0, 17952($sp)
	sdc1	$f0, 1392($sp)                  # 8-byte Folded Spill
	ldc1	$f0, 16936($sp)
	sdc1	$f0, 1384($sp)                  # 8-byte Folded Spill
	ldc1	$f0, 16944($sp)
	sdc1	$f0, 1376($sp)                  # 8-byte Folded Spill
	ldc1	$f0, 16952($sp)
	sdc1	$f0, 1368($sp)                  # 8-byte Folded Spill
	ldc1	$f0, 16960($sp)
	sdc1	$f0, 1360($sp)                  # 8-byte Folded Spill
	ldc1	$f0, 16968($sp)
	sdc1	$f0, 1352($sp)                  # 8-byte Folded Spill
	ldc1	$f0, 16976($sp)
	sdc1	$f0, 1344($sp)                  # 8-byte Folded Spill
	ldc1	$f0, 16984($sp)
	sdc1	$f0, 1336($sp)                  # 8-byte Folded Spill
	ldc1	$f0, 16992($sp)
	sdc1	$f0, 1328($sp)                  # 8-byte Folded Spill
	ldc1	$f0, 17000($sp)
	sdc1	$f0, 1320($sp)                  # 8-byte Folded Spill
	ldc1	$f0, 17008($sp)
	sdc1	$f0, 1312($sp)                  # 8-byte Folded Spill
	ldc1	$f0, 17016($sp)
	sdc1	$f0, 1304($sp)                  # 8-byte Folded Spill
	ldc1	$f0, 17024($sp)
	sdc1	$f0, 1296($sp)                  # 8-byte Folded Spill
	ldc1	$f0, 17032($sp)
	sdc1	$f0, 1288($sp)                  # 8-byte Folded Spill
	ldc1	$f0, 17040($sp)
	sdc1	$f0, 1280($sp)                  # 8-byte Folded Spill
	ldc1	$f0, 17048($sp)
	sdc1	$f0, 1272($sp)                  # 8-byte Folded Spill
	ldc1	$f0, 17056($sp)
	sdc1	$f0, 1264($sp)                  # 8-byte Folded Spill
	ldc1	$f0, 17064($sp)
	sdc1	$f0, 1256($sp)                  # 8-byte Folded Spill
	ldc1	$f0, 17072($sp)
	sdc1	$f0, 1248($sp)                  # 8-byte Folded Spill
	ldc1	$f0, 17080($sp)
	sdc1	$f0, 1240($sp)                  # 8-byte Folded Spill
	ldc1	$f0, 17088($sp)
	sdc1	$f0, 1232($sp)                  # 8-byte Folded Spill
	ldc1	$f0, 17096($sp)
	sdc1	$f0, 1224($sp)                  # 8-byte Folded Spill
	ldc1	$f0, 17104($sp)
	sdc1	$f0, 1216($sp)                  # 8-byte Folded Spill
	ldc1	$f0, 17112($sp)
	sdc1	$f0, 1208($sp)                  # 8-byte Folded Spill
	ldc1	$f0, 17120($sp)
	sdc1	$f0, 1200($sp)                  # 8-byte Folded Spill
	ldc1	$f0, 17128($sp)
	sdc1	$f0, 1192($sp)                  # 8-byte Folded Spill
	ldc1	$f0, 17136($sp)
	sdc1	$f0, 1184($sp)                  # 8-byte Folded Spill
	ldc1	$f0, 17144($sp)
	sdc1	$f0, 1176($sp)                  # 8-byte Folded Spill
	ldc1	$f0, 17152($sp)
	sdc1	$f0, 1168($sp)                  # 8-byte Folded Spill
	ldc1	$f0, 17160($sp)
	sdc1	$f0, 1160($sp)                  # 8-byte Folded Spill
	ldc1	$f0, 17168($sp)
	sdc1	$f0, 1152($sp)                  # 8-byte Folded Spill
	ldc1	$f0, 17176($sp)
	sdc1	$f0, 1144($sp)                  # 8-byte Folded Spill
	ldc1	$f0, 17184($sp)
	sdc1	$f0, 1136($sp)                  # 8-byte Folded Spill
	ldc1	$f0, 17192($sp)
	sdc1	$f0, 1128($sp)                  # 8-byte Folded Spill
	ldc1	$f0, 17200($sp)
	sdc1	$f0, 1120($sp)                  # 8-byte Folded Spill
	ldc1	$f0, 17208($sp)
	sdc1	$f0, 1112($sp)                  # 8-byte Folded Spill
	ldc1	$f0, 17216($sp)
	sdc1	$f0, 1104($sp)                  # 8-byte Folded Spill
	ldc1	$f0, 17224($sp)
	sdc1	$f0, 1096($sp)                  # 8-byte Folded Spill
	ldc1	$f0, 17232($sp)
	sdc1	$f0, 1088($sp)                  # 8-byte Folded Spill
	ldc1	$f0, 17240($sp)
	sdc1	$f0, 1080($sp)                  # 8-byte Folded Spill
	ldc1	$f0, 17248($sp)
	sdc1	$f0, 1072($sp)                  # 8-byte Folded Spill
	ldc1	$f0, 17256($sp)
	sdc1	$f0, 1064($sp)                  # 8-byte Folded Spill
	ldc1	$f0, 17264($sp)
	sdc1	$f0, 1056($sp)                  # 8-byte Folded Spill
	ldc1	$f0, 17272($sp)
	sdc1	$f0, 1048($sp)                  # 8-byte Folded Spill
	ldc1	$f0, 17280($sp)
	sdc1	$f0, 1040($sp)                  # 8-byte Folded Spill
	ldc1	$f0, 17288($sp)
	sdc1	$f0, 1032($sp)                  # 8-byte Folded Spill
	ldc1	$f0, 17296($sp)
	sdc1	$f0, 1024($sp)                  # 8-byte Folded Spill
	ldc1	$f0, 17304($sp)
	sdc1	$f0, 1016($sp)                  # 8-byte Folded Spill
	ldc1	$f0, 17312($sp)
	sdc1	$f0, 1008($sp)                  # 8-byte Folded Spill
	ldc1	$f0, 17320($sp)
	sdc1	$f0, 1000($sp)                  # 8-byte Folded Spill
	ldc1	$f0, 17328($sp)
	sdc1	$f0, 992($sp)                   # 8-byte Folded Spill
	ldc1	$f0, 17336($sp)
	sdc1	$f0, 984($sp)                   # 8-byte Folded Spill
	ldc1	$f0, 17344($sp)
	sdc1	$f0, 976($sp)                   # 8-byte Folded Spill
	ldc1	$f0, 17352($sp)
	sdc1	$f0, 968($sp)                   # 8-byte Folded Spill
	ldc1	$f0, 17360($sp)
	sdc1	$f0, 960($sp)                   # 8-byte Folded Spill
	ldc1	$f0, 17368($sp)
	sdc1	$f0, 952($sp)                   # 8-byte Folded Spill
	ldc1	$f0, 17376($sp)
	sdc1	$f0, 944($sp)                   # 8-byte Folded Spill
	ldc1	$f0, 17384($sp)
	sdc1	$f0, 936($sp)                   # 8-byte Folded Spill
	ldc1	$f0, 17392($sp)
	sdc1	$f0, 928($sp)                   # 8-byte Folded Spill
	ldc1	$f0, 17400($sp)
	sdc1	$f0, 920($sp)                   # 8-byte Folded Spill
	ldc1	$f0, 17408($sp)
	sdc1	$f0, 912($sp)                   # 8-byte Folded Spill
	ldc1	$f0, 17416($sp)
	sdc1	$f0, 904($sp)                   # 8-byte Folded Spill
	ldc1	$f0, 17424($sp)
	sdc1	$f0, 896($sp)                   # 8-byte Folded Spill
	ldc1	$f0, 17432($sp)
	sdc1	$f0, 888($sp)                   # 8-byte Folded Spill
	ldc1	$f0, 17440($sp)
	sdc1	$f0, 880($sp)                   # 8-byte Folded Spill
	ldc1	$f0, 16424($sp)
	sdc1	$f0, 872($sp)                   # 8-byte Folded Spill
	ldc1	$f0, 16432($sp)
	sdc1	$f0, 864($sp)                   # 8-byte Folded Spill
	ldc1	$f0, 16440($sp)
	sdc1	$f0, 856($sp)                   # 8-byte Folded Spill
	ldc1	$f0, 16448($sp)
	sdc1	$f0, 848($sp)                   # 8-byte Folded Spill
	ldc1	$f0, 16456($sp)
	sdc1	$f0, 840($sp)                   # 8-byte Folded Spill
	ldc1	$f0, 16464($sp)
	sdc1	$f0, 832($sp)                   # 8-byte Folded Spill
	ldc1	$f0, 16472($sp)
	sdc1	$f0, 824($sp)                   # 8-byte Folded Spill
	ldc1	$f0, 16480($sp)
	sdc1	$f0, 816($sp)                   # 8-byte Folded Spill
	ldc1	$f0, 16488($sp)
	sdc1	$f0, 808($sp)                   # 8-byte Folded Spill
	ldc1	$f0, 16496($sp)
	sdc1	$f0, 800($sp)                   # 8-byte Folded Spill
	ldc1	$f0, 16504($sp)
	sdc1	$f0, 792($sp)                   # 8-byte Folded Spill
	ldc1	$f0, 16512($sp)
	sdc1	$f0, 784($sp)                   # 8-byte Folded Spill
	ldc1	$f0, 16520($sp)
	sdc1	$f0, 776($sp)                   # 8-byte Folded Spill
	ldc1	$f0, 16528($sp)
	sdc1	$f0, 768($sp)                   # 8-byte Folded Spill
	ldc1	$f0, 16536($sp)
	sdc1	$f0, 760($sp)                   # 8-byte Folded Spill
	ldc1	$f0, 16544($sp)
	sdc1	$f0, 752($sp)                   # 8-byte Folded Spill
	ldc1	$f0, 16552($sp)
	sdc1	$f0, 744($sp)                   # 8-byte Folded Spill
	ldc1	$f0, 16560($sp)
	sdc1	$f0, 736($sp)                   # 8-byte Folded Spill
	ldc1	$f0, 16568($sp)
	sdc1	$f0, 728($sp)                   # 8-byte Folded Spill
	ldc1	$f0, 16576($sp)
	sdc1	$f0, 720($sp)                   # 8-byte Folded Spill
	ldc1	$f0, 16584($sp)
	sdc1	$f0, 712($sp)                   # 8-byte Folded Spill
	ldc1	$f0, 16592($sp)
	sdc1	$f0, 704($sp)                   # 8-byte Folded Spill
	ldc1	$f0, 16600($sp)
	sdc1	$f0, 696($sp)                   # 8-byte Folded Spill
	ldc1	$f0, 16608($sp)
	sdc1	$f0, 688($sp)                   # 8-byte Folded Spill
	ldc1	$f0, 16616($sp)
	sdc1	$f0, 680($sp)                   # 8-byte Folded Spill
	ldc1	$f0, 16624($sp)
	sdc1	$f0, 672($sp)                   # 8-byte Folded Spill
	ldc1	$f0, 16632($sp)
	sdc1	$f0, 664($sp)                   # 8-byte Folded Spill
	ldc1	$f0, 16640($sp)
	sdc1	$f0, 656($sp)                   # 8-byte Folded Spill
	ldc1	$f0, 16648($sp)
	sdc1	$f0, 648($sp)                   # 8-byte Folded Spill
	ldc1	$f0, 16656($sp)
	sdc1	$f0, 640($sp)                   # 8-byte Folded Spill
	ldc1	$f0, 16664($sp)
	sdc1	$f0, 632($sp)                   # 8-byte Folded Spill
	ldc1	$f0, 16672($sp)
	sdc1	$f0, 624($sp)                   # 8-byte Folded Spill
	ldc1	$f0, 16680($sp)
	sdc1	$f0, 616($sp)                   # 8-byte Folded Spill
	ldc1	$f0, 16688($sp)
	sdc1	$f0, 608($sp)                   # 8-byte Folded Spill
	ldc1	$f0, 16696($sp)
	sdc1	$f0, 600($sp)                   # 8-byte Folded Spill
	ldc1	$f0, 16704($sp)
	sdc1	$f0, 592($sp)                   # 8-byte Folded Spill
	ldc1	$f0, 16712($sp)
	sdc1	$f0, 584($sp)                   # 8-byte Folded Spill
	ldc1	$f0, 16720($sp)
	sdc1	$f0, 576($sp)                   # 8-byte Folded Spill
	ldc1	$f0, 16728($sp)
	sdc1	$f0, 568($sp)                   # 8-byte Folded Spill
	ldc1	$f0, 16736($sp)
	sdc1	$f0, 560($sp)                   # 8-byte Folded Spill
	ldc1	$f0, 16744($sp)
	sdc1	$f0, 552($sp)                   # 8-byte Folded Spill
	ldc1	$f0, 16752($sp)
	sdc1	$f0, 544($sp)                   # 8-byte Folded Spill
	ldc1	$f0, 16760($sp)
	sdc1	$f0, 536($sp)                   # 8-byte Folded Spill
	ldc1	$f0, 16768($sp)
	sdc1	$f0, 528($sp)                   # 8-byte Folded Spill
	ldc1	$f0, 16776($sp)
	sdc1	$f0, 520($sp)                   # 8-byte Folded Spill
	ldc1	$f0, 16784($sp)
	sdc1	$f0, 512($sp)                   # 8-byte Folded Spill
	ldc1	$f0, 16792($sp)
	sdc1	$f0, 504($sp)                   # 8-byte Folded Spill
	ldc1	$f0, 16800($sp)
	sdc1	$f0, 496($sp)                   # 8-byte Folded Spill
	ldc1	$f0, 16808($sp)
	sdc1	$f0, 488($sp)                   # 8-byte Folded Spill
	ldc1	$f0, 16816($sp)
	sdc1	$f0, 480($sp)                   # 8-byte Folded Spill
	ldc1	$f0, 16824($sp)
	sdc1	$f0, 472($sp)                   # 8-byte Folded Spill
	ldc1	$f0, 16832($sp)
	sdc1	$f0, 464($sp)                   # 8-byte Folded Spill
	ldc1	$f0, 16840($sp)
	sdc1	$f0, 456($sp)                   # 8-byte Folded Spill
	ldc1	$f0, 16848($sp)
	sdc1	$f0, 448($sp)                   # 8-byte Folded Spill
	ldc1	$f0, 16856($sp)
	sdc1	$f0, 440($sp)                   # 8-byte Folded Spill
	ldc1	$f0, 16864($sp)
	sdc1	$f0, 432($sp)                   # 8-byte Folded Spill
	ldc1	$f0, 16872($sp)
	sdc1	$f0, 424($sp)                   # 8-byte Folded Spill
	ldc1	$f0, 16880($sp)
	sdc1	$f0, 416($sp)                   # 8-byte Folded Spill
	ldc1	$f0, 16888($sp)
	sdc1	$f0, 408($sp)                   # 8-byte Folded Spill
	ldc1	$f0, 16896($sp)
	sdc1	$f0, 400($sp)                   # 8-byte Folded Spill
	ldc1	$f0, 16904($sp)
	sdc1	$f0, 392($sp)                   # 8-byte Folded Spill
	ldc1	$f0, 16912($sp)
	sdc1	$f0, 384($sp)                   # 8-byte Folded Spill
	ldc1	$f0, 16920($sp)
	sdc1	$f0, 376($sp)                   # 8-byte Folded Spill
	ldc1	$f0, 16928($sp)
	sdc1	$f0, 368($sp)                   # 8-byte Folded Spill
	ldc1	$f0, 16416($sp)
	sdc1	$f0, 360($sp)                   # 8-byte Folded Spill
	ldc1	$f0, 16408($sp)
	sdc1	$f0, 352($sp)                   # 8-byte Folded Spill
	ldc1	$f0, 16400($sp)
	sdc1	$f0, 344($sp)                   # 8-byte Folded Spill
	ldc1	$f0, 16392($sp)
	sdc1	$f0, 336($sp)                   # 8-byte Folded Spill
	ldc1	$f0, 16384($sp)
	sdc1	$f0, 328($sp)                   # 8-byte Folded Spill
	ldc1	$f0, 16376($sp)
	sdc1	$f0, 320($sp)                   # 8-byte Folded Spill
	ldc1	$f0, 16368($sp)
	sdc1	$f0, 312($sp)                   # 8-byte Folded Spill
	ldc1	$f0, 16360($sp)
	sdc1	$f0, 304($sp)                   # 8-byte Folded Spill
	ldc1	$f0, 16352($sp)
	sdc1	$f0, 296($sp)                   # 8-byte Folded Spill
	ldc1	$f0, 16344($sp)
	sdc1	$f0, 288($sp)                   # 8-byte Folded Spill
	ldc1	$f0, 16336($sp)
	sdc1	$f0, 280($sp)                   # 8-byte Folded Spill
	ldc1	$f0, 16328($sp)
	sdc1	$f0, 272($sp)                   # 8-byte Folded Spill
	ldc1	$f0, 16320($sp)
	sdc1	$f0, 264($sp)                   # 8-byte Folded Spill
	ldc1	$f0, 16312($sp)
	sdc1	$f0, 256($sp)                   # 8-byte Folded Spill
	ldc1	$f0, 16304($sp)
	sdc1	$f0, 248($sp)                   # 8-byte Folded Spill
	ldc1	$f0, 16296($sp)
	sdc1	$f0, 240($sp)                   # 8-byte Folded Spill
	ldc1	$f0, 16288($sp)
	sdc1	$f0, 232($sp)                   # 8-byte Folded Spill
	ldc1	$f0, 16280($sp)
	sdc1	$f0, 224($sp)                   # 8-byte Folded Spill
	ldc1	$f0, 16272($sp)
	sdc1	$f0, 216($sp)                   # 8-byte Folded Spill
	ldc1	$f0, 16264($sp)
	sdc1	$f0, 208($sp)                   # 8-byte Folded Spill
	ldc1	$f0, 16256($sp)
	sdc1	$f0, 200($sp)                   # 8-byte Folded Spill
	ldc1	$f0, 16248($sp)
	sdc1	$f0, 192($sp)                   # 8-byte Folded Spill
	ldc1	$f0, 16240($sp)
	sdc1	$f0, 184($sp)                   # 8-byte Folded Spill
	ldc1	$f0, 16232($sp)
	sdc1	$f0, 176($sp)                   # 8-byte Folded Spill
	ldc1	$f0, 16224($sp)
	sdc1	$f0, 168($sp)                   # 8-byte Folded Spill
	ldc1	$f0, 16216($sp)
	sdc1	$f0, 160($sp)                   # 8-byte Folded Spill
	ldc1	$f0, 16208($sp)
	sdc1	$f0, 152($sp)                   # 8-byte Folded Spill
	ldc1	$f0, 16200($sp)
	sdc1	$f0, 144($sp)                   # 8-byte Folded Spill
	ldc1	$f0, 16192($sp)
	sdc1	$f0, 136($sp)                   # 8-byte Folded Spill
	ldc1	$f0, 16184($sp)
	sdc1	$f0, 128($sp)                   # 8-byte Folded Spill
	ldc1	$f0, 16176($sp)
	sdc1	$f0, 120($sp)                   # 8-byte Folded Spill
	ldc1	$f0, 16168($sp)
	sdc1	$f0, 112($sp)                   # 8-byte Folded Spill
	ldc1	$f0, 16160($sp)
	sdc1	$f0, 104($sp)                   # 8-byte Folded Spill
	ldc1	$f0, 16152($sp)
	sdc1	$f0, 96($sp)                    # 8-byte Folded Spill
	ldc1	$f0, 16144($sp)
	sdc1	$f0, 88($sp)                    # 8-byte Folded Spill
	ldc1	$f0, 16136($sp)
	sdc1	$f0, 80($sp)                    # 8-byte Folded Spill
	ldc1	$f0, 16128($sp)
	sdc1	$f0, 72($sp)                    # 8-byte Folded Spill
	ldc1	$f0, 16120($sp)
	sdc1	$f0, 64($sp)                    # 8-byte Folded Spill
	ldc1	$f0, 16112($sp)
	sdc1	$f0, 56($sp)                    # 8-byte Folded Spill
	ldc1	$f0, 16104($sp)
	sdc1	$f0, 48($sp)                    # 8-byte Folded Spill
	ldc1	$f0, 16096($sp)
	sdc1	$f0, 40($sp)                    # 8-byte Folded Spill
	ldc1	$f0, 16088($sp)
	sdc1	$f0, 32($sp)                    # 8-byte Folded Spill
	ldc1	$f0, 16080($sp)
	sdc1	$f0, 24($sp)                    # 8-byte Folded Spill
	ldc1	$f0, 16072($sp)
	sdc1	$f0, 16($sp)                    # 8-byte Folded Spill
	ldc1	$f0, 16064($sp)
	sdc1	$f0, 8($sp)                     # 8-byte Folded Spill
	ldc1	$f0, 16056($sp)
	sdc1	$f0, 0($sp)                     # 8-byte Folded Spill
	ldc1	$f28, 16048($sp)
	ldc1	$f26, 16040($sp)
	ldc1	$f24, 16032($sp)
	ldc1	$f22, 16024($sp)
	ldc1	$f20, 16016($sp)
	ldc1	$f18, 16008($sp)
	ldc1	$f16, 16000($sp)
	ldc1	$f14, 15992($sp)
	ldc1	$f12, 15984($sp)
	ldc1	$f10, 15976($sp)
	ldc1	$f8, 15968($sp)
	ldc1	$f6, 15960($sp)
	ldc1	$f4, 15952($sp)
	ldc1	$f2, 15944($sp)
	ldc1	$f0, 15936($sp)
	ldc1	$f30, 15928($sp)
	sdc1	$f30, 7880($sp)
	sdc1	$f0, 7888($sp)
	sdc1	$f2, 7896($sp)
	sdc1	$f4, 7904($sp)
	sdc1	$f6, 7912($sp)
	sdc1	$f8, 7920($sp)
	sdc1	$f10, 7928($sp)
	sdc1	$f12, 7936($sp)
	sdc1	$f14, 7944($sp)
	sdc1	$f16, 7952($sp)
	sdc1	$f18, 7960($sp)
	sdc1	$f20, 7968($sp)
